(dp0
S'080f627bc6a1323d2b540d71c2f03cf5'
p1
ccopy_reg
_reconstructor
p2
(csuds.sax.text
Text
p3
c__builtin__
unicode
p4
VbR3UfD
p5
tp6
Rp7
(dp8
S'lang'
p9
NsS'escaped'
p10
I00
sbsS'd0e4f1cd3ec3c885ac81e1afd7c35564'
p11
g2
(g3
g4
VRo89BO
p12
tp13
Rp14
(dp15
g9
Nsg10
I00
sbsS'a9f5b442351493390b672574a3d6201d'
p16
g2
(g3
g4
VaWwgPw
p17
tp18
Rp19
(dp20
g9
Nsg10
I00
sbsS'1e496d88444102fe39278f1fcf8ac9bb'
p21
g2
(g3
g4
V0s79UX
p22
tp23
Rp24
(dp25
g9
Nsg10
I00
sbsS'9ab7ef1903570456172bfaad0c1625f3'
p26
g2
(g3
g4
VpR52IA
p27
tp28
Rp29
(dp30
g9
Nsg10
I00
sbsS'9fcc678b5d4a81371689b96edfffc1c9'
p31
g2
(g3
g4
V6NTKEP
p32
tp33
Rp34
(dp35
g9
Nsg10
I00
sbsS'aed128ddb211adc9c2edce3bf7900f7f'
p36
g2
(g3
g4
VYEckkP
p37
tp38
Rp39
(dp40
g9
Nsg10
I00
sbsS'00e2143bcb14fa5e5e0479904b778db9'
p41
g2
(g3
g4
VaXM3ST
p42
tp43
Rp44
(dp45
g9
Nsg10
I00
sbsS'ff1c83271cc1fafb48d86af42236cfb1'
p46
g2
(g3
g4
VVQNEMo
p47
tp48
Rp49
(dp50
g9
Nsg10
I00
sbsS'581bd2b52aac85518095a3e2ff1fbc89'
p51
g2
(g3
g4
V0YU5uJ
p52
tp53
Rp54
(dp55
g9
Nsg10
I00
sbsS'8734fbdd722f5ff8bfe2014e6d1a955a'
p56
g2
(g3
g4
VnmcmPo
p57
tp58
Rp59
(dp60
g9
Nsg10
I00
sbsS'367ef8e10412ee18b39c7d2447f61b7f'
p61
g2
(g3
g4
ViloMDW
p62
tp63
Rp64
(dp65
g9
Nsg10
I00
sbsS'c7372690825b18ab52237a1a97f4b06f'
p66
g2
(g3
g4
VX2l4EP
p67
tp68
Rp69
(dp70
g9
Nsg10
I00
sbsS'4a1c7f5cd85f3f2893b80110f0e50ef0'
p71
g2
(g3
g4
V3em37c
p72
tp73
Rp74
(dp75
g9
Nsg10
I00
sbsS'caf6c90ab215f3b898a2a974dde5145a'
p76
g2
(g3
g4
VTwGMJs
p77
tp78
Rp79
(dp80
g9
Nsg10
I00
sbsS'808a4de3c8e36e41500829cb7b86fd8a'
p81
g2
(g3
g4
VghkCHz
p82
tp83
Rp84
(dp85
g9
Nsg10
I00
sbsS'fbc62d204161e3c27b475cd977d46688'
p86
g2
(g3
g4
VVl9zVp
p87
tp88
Rp89
(dp90
g9
Nsg10
I00
sbsS'3c9adf90dbd0067c9069e2e238163ea0'
p91
g2
(g3
g4
V0a7kU5
p92
tp93
Rp94
(dp95
g9
Nsg10
I00
sbsS'4fcbaf3639109ae48d4d5562d3dd1f79'
p96
g2
(g3
g4
VBS9lX0
p97
tp98
Rp99
(dp100
g9
Nsg10
I00
sbsS'62773453eec664ab6d73cb7fe0cedbae'
p101
g2
(g3
g4
VE0U0RX
p102
tp103
Rp104
(dp105
g9
Nsg10
I00
sbsS'a6f5c2f338a8b76db0fc3d91cf269d46'
p106
g2
(g3
g4
VNwmWJ3
p107
tp108
Rp109
(dp110
g9
Nsg10
I00
sbsS'57cc554c9e06adf00046e29b792138b8'
p111
g2
(g3
g4
VZD7gLK
p112
tp113
Rp114
(dp115
g9
Nsg10
I00
sbsS'6770e8a234f24420450d74803d976aca'
p116
g2
(g3
g4
VGw3WaT
p117
tp118
Rp119
(dp120
g9
Nsg10
I00
sbsS'9e859c1e8f14475154e37603bbaefe66'
p121
g2
(g3
g4
VMqhnen
p122
tp123
Rp124
(dp125
g9
Nsg10
I00
sbsS'f24c5fef8c90f4a490c13c9e9b31942d'
p126
g2
(g3
g4
VuDu9Ul
p127
tp128
Rp129
(dp130
g9
Nsg10
I00
sbsS'01417b8700205169be6bd5839040f3f7'
p131
g2
(g3
g4
VsOyGvw
p132
tp133
Rp134
(dp135
g9
Nsg10
I00
sbsS'f493e20702f74b0d29109aee43ff76e1'
p136
g2
(g3
g4
VwKvwVO
p137
tp138
Rp139
(dp140
g9
Nsg10
I00
sbsS'3560228625ae5ab570e3cdd3541e02b8'
p141
g2
(g3
g4
VS3nCRy
p142
tp143
Rp144
(dp145
g9
Nsg10
I00
sbsS'0252b4bc0140be29d08a52f8a3606710'
p146
g2
(g3
g4
V6ui0jo
p147
tp148
Rp149
(dp150
g9
Nsg10
I00
sbsS'7d4a9a34343ca7127b5a34430100b526'
p151
g2
(g3
g4
VZ6D4Vt
p152
tp153
Rp154
(dp155
g9
Nsg10
I00
sbsS'617ad0790a2b008c9e8e648591efe1e1'
p156
g2
(g3
g4
VaVOUjp
p157
tp158
Rp159
(dp160
g9
Nsg10
I00
sbsS'b320af637a950c4315e2afde4c11dbe3'
p161
g2
(g3
g4
Vozqyhd
p162
tp163
Rp164
(dp165
g9
Nsg10
I00
sbsS'759b7030b60806b84ae040666100b41b'
p166
g2
(g3
g4
VhCrlWh
p167
tp168
Rp169
(dp170
g9
Nsg10
I00
sbsS'c4091aaa78c5faf5960c4fe519c0dc62'
p171
g2
(g3
g4
VmHrjvI
p172
tp173
Rp174
(dp175
g9
Nsg10
I00
sbsS'90de46afa3e5aaa7655f139466a03975'
p176
g2
(g3
g4
VwFpJ43
p177
tp178
Rp179
(dp180
g9
Nsg10
I00
sbsS'14a5d10bf24c44e83b4e1f685b1a2e19'
p181
g2
(g3
g4
VoH69o7
p182
tp183
Rp184
(dp185
g9
Nsg10
I00
sbsS'548a4b65370fe443cfe5da16010f6724'
p186
g2
(g3
g4
VQRFRka
p187
tp188
Rp189
(dp190
g9
Nsg10
I00
sbsS'691353ea6d0edb7b4b8c8b2088d00979'
p191
g2
(g3
g4
VJBS7Rr
p192
tp193
Rp194
(dp195
g9
Nsg10
I00
sbsS'61214ee1af61095689b68f81906587e9'
p196
g2
(g3
g4
VXq3hcc
p197
tp198
Rp199
(dp200
g9
Nsg10
I00
sbsS'd225c8089ac9102cec9456a3c9bbb62c'
p201
g2
(g3
g4
VqlSHOT
p202
tp203
Rp204
(dp205
g9
Nsg10
I00
sbsS'd0cfda60ce66bdfb906dc31c1ef428f9'
p206
g2
(g3
g4
Vt3XpUE
p207
tp208
Rp209
(dp210
g9
Nsg10
I00
sbsS'c724b8030fbd9c6f22bba744434f044b'
p211
g2
(g3
g4
VasZ4hQ
p212
tp213
Rp214
(dp215
g9
Nsg10
I00
sbsS'd2e89e78d7c3f3d33e02cf7a0cd212aa'
p216
g2
(g3
g4
VXz9Pg5
p217
tp218
Rp219
(dp220
g9
Nsg10
I00
sbsS'4926a6f0e4606d663f7fef0c56566fcd'
p221
g2
(g3
g4
V1WMrfs
p222
tp223
Rp224
(dp225
g9
Nsg10
I00
sbsS'0b778a122070b27d5aa1df82e77cd335'
p226
g2
(g3
g4
V9Hs8E1
p227
tp228
Rp229
(dp230
g9
Nsg10
I00
sbsS'd317cef54bfb88f2b8d079b4fdaffce3'
p231
g2
(g3
g4
VaOpMR1
p232
tp233
Rp234
(dp235
g9
Nsg10
I00
sbsS'c0787cf00be5cf7403323c12ddd94178'
p236
g2
(g3
g4
VF3k3qo
p237
tp238
Rp239
(dp240
g9
Nsg10
I00
sbsS'37a72b54aa06e71c540dc57f3ea730f1'
p241
g2
(g3
g4
VH3hDHK
p242
tp243
Rp244
(dp245
g9
Nsg10
I00
sbsS'033b50318b863b14465d794ba2e5bc6d'
p246
g2
(g3
g4
VLR2pFr
p247
tp248
Rp249
(dp250
g9
Nsg10
I00
sbsS'd41d8cd98f00b204e9800998ecf8427e'
p251
g2
(g3
g4
VrFJzKF
p252
tp253
Rp254
(dp255
g9
Nsg10
I00
sbsS'50c799effb7410fb5e173627cbd009ff'
p256
g2
(g3
g4
VI6O4RU
p257
tp258
Rp259
(dp260
g9
Nsg10
I00
sbsS'8dd8a6d0b5042602a854148f9d25dfac'
p261
g2
(g3
g4
VftSQik
p262
tp263
Rp264
(dp265
g9
Nsg10
I00
sbsS'7200c09e8d0eb5f8369eb4f8fad3d758'
p266
g2
(g3
g4
VD7ruaQ
p267
tp268
Rp269
(dp270
g9
Nsg10
I00
sbsS'31aafdf7f705fece7156270a9e639031'
p271
g2
(g3
g4
VyHA3WY
p272
tp273
Rp274
(dp275
g9
Nsg10
I00
sbsS'456a89c10f2071be14b355802701a183'
p276
g2
(g3
g4
VW0IEOx
p277
tp278
Rp279
(dp280
g9
Nsg10
I00
sbsS'c20e5e87c94f00e2000915b958b09774'
p281
g2
(g3
g4
VBcIXhk
p282
tp283
Rp284
(dp285
g9
Nsg10
I00
sbsS'2a912c36809d1d702f7c331b2971ceb0'
p286
g2
(g3
g4
VMPjXuM
p287
tp288
Rp289
(dp290
g9
Nsg10
I00
sbsS'c9a2257a6aaa3d33afc7891ce3ed01ee'
p291
g2
(g3
g4
Vj9VkcK
p292
tp293
Rp294
(dp295
g9
Nsg10
I00
sbsS'e852ad3f3be3d7679d48f5ac6eafcc4d'
p296
g2
(g3
g4
V8LslL7
p297
tp298
Rp299
(dp300
g9
Nsg10
I00
sbsS'5a33c52bab689a057edd063c15834e74'
p301
g2
(g3
g4
VLDpYcO
p302
tp303
Rp304
(dp305
g9
Nsg10
I00
sbsS'ab9832d818ea8a0ff9bbe96e0306c4ef'
p306
g2
(g3
g4
VMICrWV
p307
tp308
Rp309
(dp310
g9
Nsg10
I00
sbsS'721e225012de6178d9c364aedbd807f2'
p311
g2
(g3
g4
VUJZtdO
p312
tp313
Rp314
(dp315
g9
Nsg10
I00
sbsS'91ffccec8abf2a59f16babcce220f0d1'
p316
g2
(g3
g4
VmCnmo6
p317
tp318
Rp319
(dp320
g9
Nsg10
I00
sbsS'b000d76fb4df5191331b1d1678634f29'
p321
g2
(g3
g4
V7iIDio
p322
tp323
Rp324
(dp325
g9
Nsg10
I00
sbsS'afadcc0371753413e5d5aaba4ad5310b'
p326
g2
(g3
g4
Vv6gdat
p327
tp328
Rp329
(dp330
g9
Nsg10
I00
sbsS'30256344195789053409d38ce8d9bc22'
p331
g2
(g3
g4
V3CA4al
p332
tp333
Rp334
(dp335
g9
Nsg10
I00
sbsS'479b3cb97b8654b18943e0ef7933b71b'
p336
g2
(g3
g4
V6n3oSs
p337
tp338
Rp339
(dp340
g9
Nsg10
I00
sbsS'98d83cca8c71a6fb8ae0802a59704571'
p341
g2
(g3
g4
VMV4Ba6
p342
tp343
Rp344
(dp345
g9
Nsg10
I00
sbsS'96a85667e621ea08471c8649fbc5cc22'
p346
g2
(g3
g4
VbiOry1
p347
tp348
Rp349
(dp350
g9
Nsg10
I00
sbsS'526933a4bec1b1fce8b7f338556a42c7'
p351
g2
(g3
g4
VxBSFYE
p352
tp353
Rp354
(dp355
g9
Nsg10
I00
sbsS'fecd58c28b1044cb1e0d2da8daeec0e9'
p356
g2
(g3
g4
VhdqDUd
p357
tp358
Rp359
(dp360
g9
Nsg10
I00
sbsS'7b768e6a6b682a870dae4ac5603c3dc2'
p361
g2
(g3
g4
VoVYWZA
p362
tp363
Rp364
(dp365
g9
Nsg10
I00
sbsS'1a93bb1268c0331f372d1e44ac483f56'
p366
g2
(g3
g4
Vyun1KR
p367
tp368
Rp369
(dp370
g9
Nsg10
I00
sbsS'f353b8633d3211c9e1bfdda02f51feb5'
p371
g2
(g3
g4
VzUIcm9
p372
tp373
Rp374
(dp375
g9
Nsg10
I00
sbsS'bcd375be628937e7bffb5ce24e05455c'
p376
g2
(g3
g4
VRAYmrn
p377
tp378
Rp379
(dp380
g9
Nsg10
I00
sbsS'75ffb917345269bcabd46c2a176fd595'
p381
g2
(g3
g4
VC39MT6
p382
tp383
Rp384
(dp385
g9
Nsg10
I00
sbsS'6b3435e77dc88b050cc49654b363a07f'
p386
g2
(g3
g4
VGyuWbb
p387
tp388
Rp389
(dp390
g9
Nsg10
I00
sbsS'88926431b04e13be7fd22160b5aa9b14'
p391
g2
(g3
g4
VquhHw1
p392
tp393
Rp394
(dp395
g9
Nsg10
I00
sbsS'de58cf4b45c0c72922c42db31f4a69e5'
p396
g2
(g3
g4
VEO5umY
p397
tp398
Rp399
(dp400
g9
Nsg10
I00
sbsS'2fb4b3ff6409860b9c2aef9a29f64691'
p401
g2
(g3
g4
VMP7W97
p402
tp403
Rp404
(dp405
g9
Nsg10
I00
sbsS'84218509a634e0577bf1f34e7defc2ec'
p406
g2
(g3
g4
VOHpFfj
p407
tp408
Rp409
(dp410
g9
Nsg10
I00
sbsS'0ff3e9b9557f802b767ba444e40bc175'
p411
g2
(g3
g4
Vun1HZO
p412
tp413
Rp414
(dp415
g9
Nsg10
I00
sbsS'fdf631eb0ab4787c4db7332bdf1ce7ca'
p416
g2
(g3
g4
VcB1u9Q
p417
tp418
Rp419
(dp420
g9
Nsg10
I00
sbsS'd9a3e989d896f4feae861b23a4d70018'
p421
g2
(g3
g4
VkHjSQj
p422
tp423
Rp424
(dp425
g9
Nsg10
I00
sbsS'a8cc09ef8a49690c7bba174e722b85ac'
p426
g2
(g3
g4
VRhbDJl
p427
tp428
Rp429
(dp430
g9
Nsg10
I00
sbsS'119b02fd9cb186543829ea38b34909e5'
p431
g2
(g3
g4
VmvHxN7
p432
tp433
Rp434
(dp435
g9
Nsg10
I00
sbsS'9220c7c562e35d691398380baf5ba44c'
p436
g2
(g3
g4
VqSrLyC
p437
tp438
Rp439
(dp440
g9
Nsg10
I00
sbsS'b86f92ae4a3d3ff59e7a337af5f22938'
p441
g2
(g3
g4
VAn2qRA
p442
tp443
Rp444
(dp445
g9
Nsg10
I00
sbsS'6f08112659d765ab411c694956d99e1f'
p446
g2
(g3
g4
VBifNLh
p447
tp448
Rp449
(dp450
g9
Nsg10
I00
sbsS'0e0463d7c3693281bc10974bfc701bc8'
p451
g2
(g3
g4
VTLwsaK
p452
tp453
Rp454
(dp455
g9
Nsg10
I00
sbsS'8c7d5da431a1df5dc9827718ceed2bd1'
p456
g2
(g3
g4
VSnyqKH
p457
tp458
Rp459
(dp460
g9
Nsg10
I00
sbsS'99b026e9a46a11207e65c7388164fa13'
p461
g2
(g3
g4
VXb2Bfq
p462
tp463
Rp464
(dp465
g9
Nsg10
I00
sbsS'c533a4a156657945567bba9dfdd95377'
p466
g2
(g3
g4
VFIeVi4
p467
tp468
Rp469
(dp470
g9
Nsg10
I00
sbsS'6e68c7ac6a7a3a5df4db8fbe58dc6c73'
p471
g2
(g3
g4
VOIJkjX
p472
tp473
Rp474
(dp475
g9
Nsg10
I00
sbsS'b4914242810d82425d8558403f604de3'
p476
g2
(g3
g4
V7E4F0B
p477
tp478
Rp479
(dp480
g9
Nsg10
I00
sbsS'79bd79779b3e50c4d8350f5d40b038db'
p481
g2
(g3
g4
VlP31K6
p482
tp483
Rp484
(dp485
g9
Nsg10
I00
sbsS'53443cee1831850db5fcf17ad7011b66'
p486
g2
(g3
g4
Vv1JIcO
p487
tp488
Rp489
(dp490
g9
Nsg10
I00
sbsS'415371d3a57a055c8358619e638a8a9b'
p491
g2
(g3
g4
V8pA08a
p492
tp493
Rp494
(dp495
g9
Nsg10
I00
sbsS'5bf5d848152230a0bba58a64d75a1825'
p496
g2
(g3
g4
VaAn6t5
p497
tp498
Rp499
(dp500
g9
Nsg10
I00
sbsS'14ca3dd32324a92e159273d7774cd6ee'
p501
g2
(g3
g4
VdClJCz
p502
tp503
Rp504
(dp505
g9
Nsg10
I00
sbsS'b73672b191ffda7fbfa81096b2bf4746'
p506
g2
(g3
g4
VF9vakc
p507
tp508
Rp509
(dp510
g9
Nsg10
I00
sbsS'5822e35b1e2ea0510e81aa2e4a31250c'
p511
g2
(g3
g4
VbAyqjK
p512
tp513
Rp514
(dp515
g9
Nsg10
I00
sbsS'e83c6f83369141714fe247f9837e3407'
p516
g2
(g3
g4
V62kHJw
p517
tp518
Rp519
(dp520
g9
Nsg10
I00
sbsS'5097b6b431c3166131dac553ec155e36'
p521
g2
(g3
g4
VQORjTs
p522
tp523
Rp524
(dp525
g9
Nsg10
I00
sbsS'c872e9884eaa5e229b09d70ac8484f7f'
p526
g2
(g3
g4
VJo189x
p527
tp528
Rp529
(dp530
g9
Nsg10
I00
sbsS'db00f4304e254c0d4a8bda7116510ae8'
p531
g2
(g3
g4
VIHyFYa
p532
tp533
Rp534
(dp535
g9
Nsg10
I00
sbsS'c552138dd116333107f284d11e5d18fd'
p536
g2
(g3
g4
V3j3pmf
p537
tp538
Rp539
(dp540
g9
Nsg10
I00
sbsS'7208f1715c64791cec3aa4a59f1ec3a6'
p541
g2
(g3
g4
VNq45QP
p542
tp543
Rp544
(dp545
g9
Nsg10
I00
sbsS'290859c341d0ed3b29dd0d81f19cceef'
p546
g2
(g3
g4
VYAJepx
p547
tp548
Rp549
(dp550
g9
Nsg10
I00
sbsS'fd3fe8e362644375bfb459d621bcf60e'
p551
g2
(g3
g4
Vm8nPse
p552
tp553
Rp554
(dp555
g9
Nsg10
I00
sbsS'f988886470331dccc8ec086c41bfafcd'
p556
g2
(g3
g4
Vqoy8RA
p557
tp558
Rp559
(dp560
g9
Nsg10
I00
sbsS'34f277199fb48867873773f7b1112966'
p561
g2
(g3
g4
VPTqdv9
p562
tp563
Rp564
(dp565
g9
Nsg10
I00
sbsS'38bee8826e7b363909bb89d233df1fa9'
p566
g2
(g3
g4
Vi4MCAe
p567
tp568
Rp569
(dp570
g9
Nsg10
I00
sbsS'41b29708372aaa34ed318889e276fed7'
p571
g2
(g3
g4
VJYaK6b
p572
tp573
Rp574
(dp575
g9
Nsg10
I00
sbsS'07c35588475f76ce76006d6318ab2a3a'
p576
g2
(g3
g4
Voya0gC
p577
tp578
Rp579
(dp580
g9
Nsg10
I00
sbsS'21dfa21e40c9408c6db35e109b2070bf'
p581
g2
(g3
g4
VXqKshm
p582
tp583
Rp584
(dp585
g9
Nsg10
I00
sbsS'94c224dff1b200053f5dad5d1e79caaf'
p586
g2
(g3
g4
V6rL6Lb
p587
tp588
Rp589
(dp590
g9
Nsg10
I00
sbsS'f202e1c7bbd7e4decf61493fad965bfd'
p591
g2
(g3
g4
Vwt5slm
p592
tp593
Rp594
(dp595
g9
Nsg10
I00
sbsS'034018f099da9ae1507c8f6955a42ab4'
p596
g2
(g3
g4
V0DWFgP
p597
tp598
Rp599
(dp600
g9
Nsg10
I00
sbsS'9e1d398a108eed08e933bdb6a5700965'
p601
g2
(g3
g4
V7jfGTA
p602
tp603
Rp604
(dp605
g9
Nsg10
I00
sbsS'bd9128b366256cdb46ac37db7787564d'
p606
g2
(g3
g4
V1RMfya
p607
tp608
Rp609
(dp610
g9
Nsg10
I00
sbsS'57ca6231995c1d536a3d7883aaff1b41'
p611
g2
(g3
g4
VBFKNEZ
p612
tp613
Rp614
(dp615
g9
Nsg10
I00
sbsS'bbb2558539f55f715ad58d62ef357242'
p616
g2
(g3
g4
V1GIVX5
p617
tp618
Rp619
(dp620
g9
Nsg10
I00
sbsS'299145d539b47f8812a1ad50a8c4730b'
p621
g2
(g3
g4
VV3JRLX
p622
tp623
Rp624
(dp625
g9
Nsg10
I00
sbsS'ebea5f98611f42b3ebc9ec25cb060c3b'
p626
g2
(g3
g4
VQvhIK5
p627
tp628
Rp629
(dp630
g9
Nsg10
I00
sbsS'54b4f778d9a7e244b7345d9399bf40c9'
p631
g2
(g3
g4
VR2v9p2
p632
tp633
Rp634
(dp635
g9
Nsg10
I00
sbsS'4e16ffbeb01541acdfcc5d9ad9d24463'
p636
g2
(g3
g4
VmbRTPo
p637
tp638
Rp639
(dp640
g9
Nsg10
I00
sbsS'8b8441465c558c1a8e06f1eb68a7ba32'
p641
g2
(g3
g4
V5NoiNV
p642
tp643
Rp644
(dp645
g9
Nsg10
I00
sbsS'b71ab35ef5e1daf22c80622db5b67c4e'
p646
g2
(g3
g4
VQsJ43t
p647
tp648
Rp649
(dp650
g9
Nsg10
I00
sbsS'e22cf676ff4852c13e5c1da089c8e616'
p651
g2
(g3
g4
VD1VFQD
p652
tp653
Rp654
(dp655
g9
Nsg10
I00
sbsS'85f5c682d231cee8b629eb00409cd16d'
p656
g2
(g3
g4
VkpzPYX
p657
tp658
Rp659
(dp660
g9
Nsg10
I00
sbsS'd4e358a261ee3855c011a13ebe7106c2'
p661
g2
(g3
g4
VGyJ46g
p662
tp663
Rp664
(dp665
g9
Nsg10
I00
sbsS'7c34f6a5d5c5363fec465c30c9f22b7f'
p666
g2
(g3
g4
VQRBCNj
p667
tp668
Rp669
(dp670
g9
Nsg10
I00
sbsS'4b092d10f594c3d5c0824acdcb839f55'
p671
g2
(g3
g4
VrnHRA1
p672
tp673
Rp674
(dp675
g9
Nsg10
I00
sbsS'35899ec14d4615abe33b7574de6096d1'
p676
g2
(g3
g4
VmJB0g1
p677
tp678
Rp679
(dp680
g9
Nsg10
I00
sbsS'6e5873ee5ba49c06f86e7fd9a48b6517'
p681
g2
(g3
g4
VkMpu08
p682
tp683
Rp684
(dp685
g9
Nsg10
I00
sbsS'af3f887397080401f1f6af910fec288c'
p686
g2
(g3
g4
Vr5r6HX
p687
tp688
Rp689
(dp690
g9
Nsg10
I00
sbsS'739e87d5c6156229e7b458ef4d20723b'
p691
g2
(g3
g4
VgyJGjM
p692
tp693
Rp694
(dp695
g9
Nsg10
I00
sbsS'eb66a7fa866945879543f5150aba72fc'
p696
g2
(g3
g4
VYBRu0R
p697
tp698
Rp699
(dp700
g9
Nsg10
I00
sbsS'69310d5a50bec4d0ef508379c6ac1eae'
p701
g2
(g3
g4
VRIzZKJ
p702
tp703
Rp704
(dp705
g9
Nsg10
I00
sbsS'1ef0c7712bdf9d7c7733d873553942eb'
p706
g2
(g3
g4
VBmHnbf
p707
tp708
Rp709
(dp710
g9
Nsg10
I00
sbsS'2ea24ed1ae852e6359f0150b43311388'
p711
g2
(g3
g4
VDdYH0J
p712
tp713
Rp714
(dp715
g9
Nsg10
I00
sbsS'3fd8e2883a735a89152b1af03cfbef58'
p716
g2
(g3
g4
VJWpZZN
p717
tp718
Rp719
(dp720
g9
Nsg10
I00
sbsS'ee50f36458172ab4fbd0b2bbf802a5a7'
p721
g2
(g3
g4
VgwEYTP
p722
tp723
Rp724
(dp725
g9
Nsg10
I00
sbsS'dd84b1ad65ba637eb979c709c83bd47a'
p726
g2
(g3
g4
VK8UErc
p727
tp728
Rp729
(dp730
g9
Nsg10
I00
sbsS'e8920568595ec74b4ecba442a40fe975'
p731
g2
(g3
g4
Vi1ACKH
p732
tp733
Rp734
(dp735
g9
Nsg10
I00
sbsS'4a5e1c127ae3e9de050cb882956493ed'
p736
g2
(g3
g4
V8tSek3
p737
tp738
Rp739
(dp740
g9
Nsg10
I00
sbsS'6cd342b22c596b43aa34ce975917b579'
p741
g2
(g3
g4
V45VBXm
p742
tp743
Rp744
(dp745
g9
Nsg10
I00
sbsS'51db31c7a9f882a30190a8b11d977393'
p746
g2
(g3
g4
VkZNzIZ
p747
tp748
Rp749
(dp750
g9
Nsg10
I00
sbsS'641bbdeac9c29f16850f72a50aecb38b'
p751
g2
(g3
g4
Vpmz7lF
p752
tp753
Rp754
(dp755
g9
Nsg10
I00
sbsS'4c72ff2827c307925dc3fb620b326b55'
p756
g2
(g3
g4
V4O7NsN
p757
tp758
Rp759
(dp760
g9
Nsg10
I00
sbsS'9316f21b9d68230d0815ea104df5e54c'
p761
g2
(g3
g4
VzjFF9S
p762
tp763
Rp764
(dp765
g9
Nsg10
I00
sbsS'959ab0301f81944db128477205dc0da8'
p766
g2
(g3
g4
VZEoRg5
p767
tp768
Rp769
(dp770
g9
Nsg10
I00
sbsS'2bf0fbe99093221de899f3752fb2af5d'
p771
g2
(g3
g4
Vhy1zSy
p772
tp773
Rp774
(dp775
g9
Nsg10
I00
sbsS'0404c78249e0692f44214defa47badb7'
p776
g2
(g3
g4
VPUuaCX
p777
tp778
Rp779
(dp780
g9
Nsg10
I00
sbsS'3782eb41255b5a2f4290bfa54af5cee6'
p781
g2
(g3
g4
VqNReG4
p782
tp783
Rp784
(dp785
g9
Nsg10
I00
sbsS'c8a34ac2f783448424167c25e626c3ac'
p786
g2
(g3
g4
VQEXGNu
p787
tp788
Rp789
(dp790
g9
Nsg10
I00
sbsS'eeca677b9be1c866e23508337e53925e'
p791
g2
(g3
g4
VteKmvq
p792
tp793
Rp794
(dp795
g9
Nsg10
I00
sbsS'ae1e26d0ea08d737c4a7c37c411cf878'
p796
g2
(g3
g4
VbEA7hL
p797
tp798
Rp799
(dp800
g9
Nsg10
I00
sbsS'34c065eea56bd6bb0e141ebe07cdf81d'
p801
g2
(g3
g4
VTPAJCf
p802
tp803
Rp804
(dp805
g9
Nsg10
I00
sbsS'17334eb0a50bc158d802c83178404b5b'
p806
g2
(g3
g4
VwRWDVx
p807
tp808
Rp809
(dp810
g9
Nsg10
I00
sbsS'b0025f65f266721c71dfea4c6dc6cddf'
p811
g2
(g3
g4
V5QUDVS
p812
tp813
Rp814
(dp815
g9
Nsg10
I00
sbsS'cf14c1d4e5699e22367bee914e353808'
p816
g2
(g3
g4
VAf0ys4
p817
tp818
Rp819
(dp820
g9
Nsg10
I00
sbsS'3d68f909c2e6e8547df1046eafd422e9'
p821
g2
(g3
g4
VzbRdCh
p822
tp823
Rp824
(dp825
g9
Nsg10
I00
sbsS'c6147c14ff0688cfaca99ea087c0c257'
p826
g2
(g3
g4
Vvnu4Jt
p827
tp828
Rp829
(dp830
g9
Nsg10
I00
sbsS'b4edcae4da50ea5365245f86839315b9'
p831
g2
(g3
g4
V1bOKKL
p832
tp833
Rp834
(dp835
g9
Nsg10
I00
sbsS'4e7e856d7f497d19142bd271591b14b3'
p836
g2
(g3
g4
VAKQWpB
p837
tp838
Rp839
(dp840
g9
Nsg10
I00
sbsS'a70f8648b7eb484b858c386085cdbac3'
p841
g2
(g3
g4
VvR9Um1
p842
tp843
Rp844
(dp845
g9
Nsg10
I00
sbsS'aec49e6ee1895c7af62d14a24a43f19a'
p846
g2
(g3
g4
VF7qTMS
p847
tp848
Rp849
(dp850
g9
Nsg10
I00
sbsS'4129564a1c7b47b00ec0786993908120'
p851
g2
(g3
g4
VsJMmWm
p852
tp853
Rp854
(dp855
g9
Nsg10
I00
sbsS'36ab82be3eaea557a80d0e2567e727ee'
p856
g2
(g3
g4
V87TaJm
p857
tp858
Rp859
(dp860
g9
Nsg10
I00
sbsS'2b3835049657ee39b614bd6246cf054b'
p861
g2
(g3
g4
VHTEQ1y
p862
tp863
Rp864
(dp865
g9
Nsg10
I00
sbsS'43529d2edd67fde1ddea712fb2d96993'
p866
g2
(g3
g4
V6RvXk3
p867
tp868
Rp869
(dp870
g9
Nsg10
I00
sbsS'96d7784ad4e6b688c767d1393ecd6c3d'
p871
g2
(g3
g4
VpQLfi0
p872
tp873
Rp874
(dp875
g9
Nsg10
I00
sbsS'7e5fbb086b12beeaa3b5b64fc93d981b'
p876
g2
(g3
g4
VEnarSD
p877
tp878
Rp879
(dp880
g9
Nsg10
I00
sbsS'a3fea72331188a4a2d9288599dc4eba8'
p881
g2
(g3
g4
V9zeg5F
p882
tp883
Rp884
(dp885
g9
Nsg10
I00
sbsS'97efd072f28df5cc33c10f898f91cade'
p886
g2
(g3
g4
VpICZ6J
p887
tp888
Rp889
(dp890
g9
Nsg10
I00
sbsS'c2c04960af41f4b2d933b5424a1046f7'
p891
g2
(g3
g4
VRa0D80
p892
tp893
Rp894
(dp895
g9
Nsg10
I00
sbsS'fe53b89d88460c2372e88b9d4930f3f9'
p896
g2
(g3
g4
VHp0Fhu
p897
tp898
Rp899
(dp900
g9
Nsg10
I00
sbsS'f695c3dac97a303d5bff8105c2051b42'
p901
g2
(g3
g4
VxDODG2
p902
tp903
Rp904
(dp905
g9
Nsg10
I00
sbsS'e6dbb8678ba86541844f38fbdf9f9962'
p906
g2
(g3
g4
V7BiJ63
p907
tp908
Rp909
(dp910
g9
Nsg10
I00
sbsS'95fe1558911723c4d8ddbe6ec49514f6'
p911
g2
(g3
g4
ViAUJLL
p912
tp913
Rp914
(dp915
g9
Nsg10
I00
sbsS'5ce4e48821432e424c8f839546d1e6ec'
p916
g2
(g3
g4
VbcPoD7
p917
tp918
Rp919
(dp920
g9
Nsg10
I00
sbsS'fc617ccb710cd555d877583d15733901'
p921
g2
(g3
g4
VjLrzeh
p922
tp923
Rp924
(dp925
g9
Nsg10
I00
sbsS'1a4ebf6c830fd2528089540bce01c338'
p926
g2
(g3
g4
V1HTlfO
p927
tp928
Rp929
(dp930
g9
Nsg10
I00
sbsS'41b2fb98574cf6393373cd0c8a56f6a4'
p931
g2
(g3
g4
VitkwbP
p932
tp933
Rp934
(dp935
g9
Nsg10
I00
sbsS'1f071f57f77a932fecb0cd031bbe0742'
p936
g2
(g3
g4
V2ybgGO
p937
tp938
Rp939
(dp940
g9
Nsg10
I00
sbsS'7818ebbe8fe5baea78437971cd5a28ae'
p941
g2
(g3
g4
VRfJQw8
p942
tp943
Rp944
(dp945
g9
Nsg10
I00
sbsS'7d9d64f6fec850a2f01f191ed7324c82'
p946
g2
(g3
g4
VAHhM2y
p947
tp948
Rp949
(dp950
g9
Nsg10
I00
sbsS'466c73c64e873a9804495d1ceaba0da3'
p951
g2
(g3
g4
VjmSVNu
p952
tp953
Rp954
(dp955
g9
Nsg10
I00
sbsS'209342353fc00e716d2463b329b3b396'
p956
g2
(g3
g4
VoAdUqq
p957
tp958
Rp959
(dp960
g9
Nsg10
I00
sbsS'a7c6d3e939e0f237eba89ede8c4ee0d8'
p961
g2
(g3
g4
V2naguo
p962
tp963
Rp964
(dp965
g9
Nsg10
I00
sbsS'e8f4783aa58191acb361bd425ee0821b'
p966
g2
(g3
g4
V1fEPVQ
p967
tp968
Rp969
(dp970
g9
Nsg10
I00
sbsS'1860221ae7e3f15f1be3aa489350fc07'
p971
g2
(g3
g4
VbUmX6l
p972
tp973
Rp974
(dp975
g9
Nsg10
I00
sbsS'59ccc9587dd36be7fa6e89142e1bd585'
p976
g2
(g3
g4
V666X1e
p977
tp978
Rp979
(dp980
g9
Nsg10
I00
sbsS'aef684ffd036bc862519ef22cf3bcd9b'
p981
g2
(g3
g4
VvacAuf
p982
tp983
Rp984
(dp985
g9
Nsg10
I00
sbsS'f755fca9aa0b596f98a902e57e5767b0'
p986
g2
(g3
g4
VDVQD7U
p987
tp988
Rp989
(dp990
g9
Nsg10
I00
sbsS'df86e779dc56d0706ff78d92891fac01'
p991
g2
(g3
g4
V913fpA
p992
tp993
Rp994
(dp995
g9
Nsg10
I00
sbsS'c62179eed44a3734bce5a34470196950'
p996
g2
(g3
g4
VVoSNBB
p997
tp998
Rp999
(dp1000
g9
Nsg10
I00
sbsS'86c88d228bf447bb220baec820857382'
p1001
g2
(g3
g4
VrnVyjX
p1002
tp1003
Rp1004
(dp1005
g9
Nsg10
I00
sbsS'bf4a45ec6225a8465c630dffef1a1167'
p1006
g2
(g3
g4
VPavoKU
p1007
tp1008
Rp1009
(dp1010
g9
Nsg10
I00
sbsS'0937cfc1a3dbc7faf6b0e0f99c22aca0'
p1011
g2
(g3
g4
Vv8Lo9N
p1012
tp1013
Rp1014
(dp1015
g9
Nsg10
I00
sbsS'97ea08e52ecfba9f893ee223fa2cddf0'
p1016
g2
(g3
g4
V0ydUcv
p1017
tp1018
Rp1019
(dp1020
g9
Nsg10
I00
sbsS'12bff77baa280f72b970cb5e6e07b700'
p1021
g2
(g3
g4
VIDbZLI
p1022
tp1023
Rp1024
(dp1025
g9
Nsg10
I00
sbsS'c8411bbe6ed456c89c6ec6ca84e46cee'
p1026
g2
(g3
g4
VQZvuiM
p1027
tp1028
Rp1029
(dp1030
g9
Nsg10
I00
sbsS'efdff8b6822ab048ec8f153a617d4df6'
p1031
g2
(g3
g4
V2h4Acd
p1032
tp1033
Rp1034
(dp1035
g9
Nsg10
I00
sbsS'fd246e1a3a16f8a50d7e273e0827d375'
p1036
g2
(g3
g4
VeWsDPZ
p1037
tp1038
Rp1039
(dp1040
g9
Nsg10
I00
sbsS'09b0f5ebafcf85d22e88a1a5395935a0'
p1041
g2
(g3
g4
VWkTGHo
p1042
tp1043
Rp1044
(dp1045
g9
Nsg10
I00
sbsS'd181d62306f91212feea923efbc5b7f1'
p1046
g2
(g3
g4
VMfiz1z
p1047
tp1048
Rp1049
(dp1050
g9
Nsg10
I00
sbsS'ae1e87beb2f6b8c0b94ccd956480d0c0'
p1051
g2
(g3
g4
Vj44U70
p1052
tp1053
Rp1054
(dp1055
g9
Nsg10
I00
sbsS'25c590a8df4d8c5b97fc14df2e5d750d'
p1056
g2
(g3
g4
VnAEcOx
p1057
tp1058
Rp1059
(dp1060
g9
Nsg10
I00
sbsS'6700df9b9a3b49212dd7f475a6d1da09'
p1061
g2
(g3
g4
Vm1O8wI
p1062
tp1063
Rp1064
(dp1065
g9
Nsg10
I00
sbsS'd1c7082469a9e2d30b54665af651cb47'
p1066
g2
(g3
g4
Vl9Wuvr
p1067
tp1068
Rp1069
(dp1070
g9
Nsg10
I00
sbsS'860641c83670979d25fefe6412cf3825'
p1071
g2
(g3
g4
VVmzKX7
p1072
tp1073
Rp1074
(dp1075
g9
Nsg10
I00
sbsS'834982b47ac67c1724fc49f60e64b31e'
p1076
g2
(g3
g4
VAx7Raj
p1077
tp1078
Rp1079
(dp1080
g9
Nsg10
I00
sbsS'c75005a75934c6f40b78b8e349adad1a'
p1081
g2
(g3
g4
ViU0V1h
p1082
tp1083
Rp1084
(dp1085
g9
Nsg10
I00
sbsS'83462e0da479b7b47ba00f99b1ee9912'
p1086
g2
(g3
g4
VSJE06K
p1087
tp1088
Rp1089
(dp1090
g9
Nsg10
I00
sbsS'e9d00ba1a41cb827e70515ca81dc3b6d'
p1091
g2
(g3
g4
VD19YmM
p1092
tp1093
Rp1094
(dp1095
g9
Nsg10
I00
sbsS'084b56fe2a86766d54a3e0198b701398'
p1096
g2
(g3
g4
VZLgaf4
p1097
tp1098
Rp1099
(dp1100
g9
Nsg10
I00
sbsS'61c7925481ae38ec114aba2a91cbc542'
p1101
g2
(g3
g4
VVNLuDP
p1102
tp1103
Rp1104
(dp1105
g9
Nsg10
I00
sbsS'0c305fb3a137cbb3993e31899c596ab1'
p1106
g2
(g3
g4
VkzJUpB
p1107
tp1108
Rp1109
(dp1110
g9
Nsg10
I00
sbsS'40ffe11029d8bb0d39e10b90b6273fd1'
p1111
g2
(g3
g4
VesoECv
p1112
tp1113
Rp1114
(dp1115
g9
Nsg10
I00
sbsS'aff63347df21766d6f7f1cbbf99629e3'
p1116
g2
(g3
g4
VomZaJx
p1117
tp1118
Rp1119
(dp1120
g9
Nsg10
I00
sbsS'f71b4dde2ab3b4275d2e3dc9a29a4653'
p1121
g2
(g3
g4
VZAbM6C
p1122
tp1123
Rp1124
(dp1125
g9
Nsg10
I00
sbsS'bd3f03dd3bc131abed4c0c61aadd3671'
p1126
g2
(g3
g4
VzNSgiM
p1127
tp1128
Rp1129
(dp1130
g9
Nsg10
I00
sbsS'a160f160828f4d60f418032681642d9d'
p1131
g2
(g3
g4
V6rAhcs
p1132
tp1133
Rp1134
(dp1135
g9
Nsg10
I00
sbsS'17598a4d09bd2743f29a800662ec8634'
p1136
g2
(g3
g4
VuCYwq3
p1137
tp1138
Rp1139
(dp1140
g9
Nsg10
I00
sbsS'd23d857ba120a9166b613316011befe6'
p1141
g2
(g3
g4
VSd7hwk
p1142
tp1143
Rp1144
(dp1145
g9
Nsg10
I00
sbsS'07702eee92157018f31a3bf61654c543'
p1146
g2
(g3
g4
V3W4gWU
p1147
tp1148
Rp1149
(dp1150
g9
Nsg10
I00
sbsS'ec90240d90c211768aca215dc9ea64fe'
p1151
g2
(g3
g4
V7vEZY5
p1152
tp1153
Rp1154
(dp1155
g9
Nsg10
I00
sbsS'49472d029cc8bc6a885ca03aabb14db8'
p1156
g2
(g3
g4
VxBPBwX
p1157
tp1158
Rp1159
(dp1160
g9
Nsg10
I00
sbsS'139b6abc6b769a10f887fc4f7f30f053'
p1161
g2
(g3
g4
V34f7TL
p1162
tp1163
Rp1164
(dp1165
g9
Nsg10
I00
sbsS'e70fa2ac9e3f6a70e042b5662d04b320'
p1166
g2
(g3
g4
VF7iPTE
p1167
tp1168
Rp1169
(dp1170
g9
Nsg10
I00
sbsS'a013abc276ba980331f7053f2822f1b0'
p1171
g2
(g3
g4
VP4ayzW
p1172
tp1173
Rp1174
(dp1175
g9
Nsg10
I00
sbsS'ec8a1ba5aad036a07f05e1be9b0246f0'
p1176
g2
(g3
g4
VxlYSR9
p1177
tp1178
Rp1179
(dp1180
g9
Nsg10
I00
sbsS'c8ea821a598d10b82b1e5561772dbf0e'
p1181
g2
(g3
g4
V9WuNI9
p1182
tp1183
Rp1184
(dp1185
g9
Nsg10
I00
sbsS'98354e3ea8fedffbe03aa18f51531839'
p1186
g2
(g3
g4
VNgtwMl
p1187
tp1188
Rp1189
(dp1190
g9
Nsg10
I00
sbsS'4d76af2dab4c75b1ff24bf7dfc72dbe4'
p1191
g2
(g3
g4
VmSfWdp
p1192
tp1193
Rp1194
(dp1195
g9
Nsg10
I00
sbsS'405cf710e1de4310f9e25179f45e45c4'
p1196
g2
(g3
g4
VRh1C7m
p1197
tp1198
Rp1199
(dp1200
g9
Nsg10
I00
sbsS'bfd0f7ca1682301d821eb8d4bf2c633a'
p1201
g2
(g3
g4
VjBjmZp
p1202
tp1203
Rp1204
(dp1205
g9
Nsg10
I00
sbsS'c9eae2a50fd8a37fd06974fdbb8411b3'
p1206
g2
(g3
g4
VlNzWZH
p1207
tp1208
Rp1209
(dp1210
g9
Nsg10
I00
sbsS'0206f322c57ff87e317c221593f199c9'
p1211
g2
(g3
g4
VnFqdZD
p1212
tp1213
Rp1214
(dp1215
g9
Nsg10
I00
sbsS'dfc9ed04596c723f67d639c0a2dfa9a0'
p1216
g2
(g3
g4
VK2ZJvD
p1217
tp1218
Rp1219
(dp1220
g9
Nsg10
I00
sbsS'7da68cad822b67fcdf299eb721fb3fa2'
p1221
g2
(g3
g4
VA6UxDQ
p1222
tp1223
Rp1224
(dp1225
g9
Nsg10
I00
sbsS'fb6c8751fc9b79c47afc93aebf47aff4'
p1226
g2
(g3
g4
VqLMImy
p1227
tp1228
Rp1229
(dp1230
g9
Nsg10
I00
sbsS'99320de70ddc193ffb6193a1a4b61e1f'
p1231
g2
(g3
g4
VPVYli1
p1232
tp1233
Rp1234
(dp1235
g9
Nsg10
I00
sbsS'bec7c90d007bf1ca939e6bb0e19c0349'
p1236
g2
(g3
g4
V4WiyRu
p1237
tp1238
Rp1239
(dp1240
g9
Nsg10
I00
sbsS'c31d313093875b14bc88244f6b322701'
p1241
g2
(g3
g4
VqaaExa
p1242
tp1243
Rp1244
(dp1245
g9
Nsg10
I00
sbsS'1cc801604d6d5dc8f7651ef44c613f9c'
p1246
g2
(g3
g4
V9wrpFI
p1247
tp1248
Rp1249
(dp1250
g9
Nsg10
I00
sbsS'3c618ccb055103370a6475da31fededb'
p1251
g2
(g3
g4
V5eBBEs
p1252
tp1253
Rp1254
(dp1255
g9
Nsg10
I00
sbsS'70d4e49eb7d839d4554694c4fc80ba1c'
p1256
g2
(g3
g4
VPT10rf
p1257
tp1258
Rp1259
(dp1260
g9
Nsg10
I00
sbsS'5ef2c3fcbfb6b9d4704750cc46260e35'
p1261
g2
(g3
g4
VzYaxsj
p1262
tp1263
Rp1264
(dp1265
g9
Nsg10
I00
sbsS'8b215a7cd85acf5290e9b2c6b957c2a0'
p1266
g2
(g3
g4
V0tPo46
p1267
tp1268
Rp1269
(dp1270
g9
Nsg10
I00
sbsS'cf21191feb75f625570adb3d386ba7fa'
p1271
g2
(g3
g4
VNcIMiC
p1272
tp1273
Rp1274
(dp1275
g9
Nsg10
I00
sbsS'a14722a30c847fc19b7429fcaf2d6724'
p1276
g2
(g3
g4
VjzZJK2
p1277
tp1278
Rp1279
(dp1280
g9
Nsg10
I00
sbsS'943918c7ba0ec22d7ac7bc1f2ccdb82c'
p1281
g2
(g3
g4
V5aZf3b
p1282
tp1283
Rp1284
(dp1285
g9
Nsg10
I00
sbsS'75250987feeb1d9313a213e200e8c7d7'
p1286
g2
(g3
g4
V4JWpDq
p1287
tp1288
Rp1289
(dp1290
g9
Nsg10
I00
sbsS'd287f2f8821ea3a3927239242afde683'
p1291
g2
(g3
g4
VhkfERs
p1292
tp1293
Rp1294
(dp1295
g9
Nsg10
I00
sbsS'3192fdf5910cb18c7e502006519d7cdb'
p1296
g2
(g3
g4
Va6N6a3
p1297
tp1298
Rp1299
(dp1300
g9
Nsg10
I00
sbsS'457c55b915658dde9cf41c43d4e430ac'
p1301
g2
(g3
g4
VbXdea6
p1302
tp1303
Rp1304
(dp1305
g9
Nsg10
I00
sbsS'ba89a8f6b77aac12fffd163b2dc8f64c'
p1306
g2
(g3
g4
VSx8gHw
p1307
tp1308
Rp1309
(dp1310
g9
Nsg10
I00
sbsS'26edb72e502ca0969fd537e07b60adca'
p1311
g2
(g3
g4
VNJf7GV
p1312
tp1313
Rp1314
(dp1315
g9
Nsg10
I00
sbsS'44e75a6370a71a4616136e955871b4ac'
p1316
g2
(g3
g4
VsCtx00
p1317
tp1318
Rp1319
(dp1320
g9
Nsg10
I00
sbsS'b3eed07b49c6fb3393f0a9481bd4e52d'
p1321
g2
(g3
g4
VmoW94B
p1322
tp1323
Rp1324
(dp1325
g9
Nsg10
I00
sbsS'998aa692c65cc11e57c6b0922499ccb6'
p1326
g2
(g3
g4
VQcW8hz
p1327
tp1328
Rp1329
(dp1330
g9
Nsg10
I00
sbsS'6a6ac1e5f5e41876681d31aef01a0872'
p1331
g2
(g3
g4
Vt6Tiuu
p1332
tp1333
Rp1334
(dp1335
g9
Nsg10
I00
sbsS'4a595547d3ae1c110f9f8cec040ea9ae'
p1336
g2
(g3
g4
Vu81VoO
p1337
tp1338
Rp1339
(dp1340
g9
Nsg10
I00
sbsS'f210df3826e74727b055c83f9d3d13bd'
p1341
g2
(g3
g4
V2f5bQc
p1342
tp1343
Rp1344
(dp1345
g9
Nsg10
I00
sbsS'aa4d1b03fd9db9e0ae1a7fa853b578c8'
p1346
g2
(g3
g4
VHaTtq0
p1347
tp1348
Rp1349
(dp1350
g9
Nsg10
I00
sbsS'9705a0a9410150e0a686427d08a07b88'
p1351
g2
(g3
g4
VHPOjVT
p1352
tp1353
Rp1354
(dp1355
g9
Nsg10
I00
sbsS'6bfef91284a8dab6b1d574bb61039e2e'
p1356
g2
(g3
g4
VHKRvok
p1357
tp1358
Rp1359
(dp1360
g9
Nsg10
I00
sbsS'59e50e91942a9a8cb1a4f16fd014df7f'
p1361
g2
(g3
g4
VOit7gp
p1362
tp1363
Rp1364
(dp1365
g9
Nsg10
I00
sbsS'4e9c00717acc4b54ea3b346c081d978b'
p1366
g2
(g3
g4
V4XWz4c
p1367
tp1368
Rp1369
(dp1370
g9
Nsg10
I00
sbsS'ba019f8f9a9b112390d149e5c75d7533'
p1371
g2
(g3
g4
VwtvkUu
p1372
tp1373
Rp1374
(dp1375
g9
Nsg10
I00
sbsS'f46abe5cdc92c7a47f9dc6ba181ae951'
p1376
g2
(g3
g4
VTKeIIJ
p1377
tp1378
Rp1379
(dp1380
g9
Nsg10
I00
sbsS'7249c6b2717a436011fc48d259ba2c77'
p1381
g2
(g3
g4
Vxx2hwz
p1382
tp1383
Rp1384
(dp1385
g9
Nsg10
I00
sbsS'c648f2f33edcf717cb182f794295c481'
p1386
g2
(g3
g4
VQGrIIK
p1387
tp1388
Rp1389
(dp1390
g9
Nsg10
I00
sbsS'eb38b404c151d19c981e6263499fb51a'
p1391
g2
(g3
g4
VobX6EA
p1392
tp1393
Rp1394
(dp1395
g9
Nsg10
I00
sbsS'7a5512bfd66144eaaef056c66861b533'
p1396
g2
(g3
g4
VNxbAXH
p1397
tp1398
Rp1399
(dp1400
g9
Nsg10
I00
sbsS'437ab06489449856f1e7e2fc615cf61c'
p1401
g2
(g3
g4
VIfi9gZ
p1402
tp1403
Rp1404
(dp1405
g9
Nsg10
I00
sbsS'477b47af995794138427f9313aa24104'
p1406
g2
(g3
g4
V6mUMmL
p1407
tp1408
Rp1409
(dp1410
g9
Nsg10
I00
sbsS'06a6d73a06af5b4cd6eaf88f55d7d1dc'
p1411
g2
(g3
g4
VfZNNnK
p1412
tp1413
Rp1414
(dp1415
g9
Nsg10
I00
sbsS'56fc8fbd97526d48a1c58d1c8d4cc0a7'
p1416
g2
(g3
g4
VD6kxZe
p1417
tp1418
Rp1419
(dp1420
g9
Nsg10
I00
sbsS'fe8437a27fbaf6d3514cc22ebeadfde2'
p1421
g2
(g3
g4
VfUgN3u
p1422
tp1423
Rp1424
(dp1425
g9
Nsg10
I00
sbsS'f7011e97ff3d1236204bff916a141d04'
p1426
g2
(g3
g4
VlGukPN
p1427
tp1428
Rp1429
(dp1430
g9
Nsg10
I00
sbsS'2f72486673de4bfb73a7334721678be6'
p1431
g2
(g3
g4
VswbQ6H
p1432
tp1433
Rp1434
(dp1435
g9
Nsg10
I00
sbsS'f6080e5e9a8bae92734b2cbf1664d6b2'
p1436
g2
(g3
g4
VuWWzrY
p1437
tp1438
Rp1439
(dp1440
g9
Nsg10
I00
sbsS'a4c629aa92dd8d53d94c7452eeb3f123'
p1441
g2
(g3
g4
VzFS03K
p1442
tp1443
Rp1444
(dp1445
g9
Nsg10
I00
sbsS'098b317fe4ccf65d2c672b66b9e4916f'
p1446
g2
(g3
g4
VtcCvg0
p1447
tp1448
Rp1449
(dp1450
g9
Nsg10
I00
sbsS'59a763fe97d6711b44ff8dbce12725e0'
p1451
g2
(g3
g4
VhwyuAW
p1452
tp1453
Rp1454
(dp1455
g9
Nsg10
I00
sbsS'5dedf65c8171c537817bcf442d59f1a2'
p1456
g2
(g3
g4
VS3tWCH
p1457
tp1458
Rp1459
(dp1460
g9
Nsg10
I00
sbsS'46b92265d670cd084c80c5f44ca59de7'
p1461
g2
(g3
g4
VSPrNme
p1462
tp1463
Rp1464
(dp1465
g9
Nsg10
I00
sbsS'6d06b3fe18b9a2b7fc9e9944d3f32331'
p1466
g2
(g3
g4
VSfc3LZ
p1467
tp1468
Rp1469
(dp1470
g9
Nsg10
I00
sbsS'52198ac30e61c21b622a6255d8e3b556'
p1471
g2
(g3
g4
Vc5HMDH
p1472
tp1473
Rp1474
(dp1475
g9
Nsg10
I00
sbsS'f5f59f055a9912a1e9ce99d333d6110f'
p1476
g2
(g3
g4
VOJbvYL
p1477
tp1478
Rp1479
(dp1480
g9
Nsg10
I00
sbsS'aa9c5316a8f082bab4ada96abdafe3a6'
p1481
g2
(g3
g4
VlIip2D
p1482
tp1483
Rp1484
(dp1485
g9
Nsg10
I00
sbsS'13555674a9dfcc2ae3f5a16fffa1af67'
p1486
g2
(g3
g4
VcjDMWs
p1487
tp1488
Rp1489
(dp1490
g9
Nsg10
I00
sbsS'e066ce5de88136cbd87c5961654e22f4'
p1491
g2
(g3
g4
V4zLC9g
p1492
tp1493
Rp1494
(dp1495
g9
Nsg10
I00
sbsS'9cd6de6e16d5db206cad5a663118eaa0'
p1496
g2
(g3
g4
VWClIda
p1497
tp1498
Rp1499
(dp1500
g9
Nsg10
I00
sbsS'bb0b0b357378f765b9291a40dc3fcc62'
p1501
g2
(g3
g4
VXSe4cm
p1502
tp1503
Rp1504
(dp1505
g9
Nsg10
I00
sbsS'6e2dec6d6f68a1838c4c024fabd2ce74'
p1506
g2
(g3
g4
VqXSaSN
p1507
tp1508
Rp1509
(dp1510
g9
Nsg10
I00
sbsS'bb07e2c632886217f9c02c358b823c23'
p1511
g2
(g3
g4
V9O0Kzw
p1512
tp1513
Rp1514
(dp1515
g9
Nsg10
I00
sbsS'e833bad8b1e51201ec9ff33281b7c7a0'
p1516
g2
(g3
g4
VnAtnTK
p1517
tp1518
Rp1519
(dp1520
g9
Nsg10
I00
sbsS'dd6e5a395e95253da2aa58a1de98e496'
p1521
g2
(g3
g4
VXsmZvD
p1522
tp1523
Rp1524
(dp1525
g9
Nsg10
I00
sbsS'239f802081dcfe944637441465dbd886'
p1526
g2
(g3
g4
VUx5ZVD
p1527
tp1528
Rp1529
(dp1530
g9
Nsg10
I00
sbsS'31b513228b87a0e958eaf5528ad1a831'
p1531
g2
(g3
g4
VGFEmcl
p1532
tp1533
Rp1534
(dp1535
g9
Nsg10
I00
sbsS'99cd14ce4010720d8e4c6c028f4cc652'
p1536
g2
(g3
g4
VCMLrbO
p1537
tp1538
Rp1539
(dp1540
g9
Nsg10
I00
sbsS'e1be5422e43aacfcddc72e1493ce231b'
p1541
g2
(g3
g4
VZNnr5K
p1542
tp1543
Rp1544
(dp1545
g9
Nsg10
I00
sbsS'e5515d7484afaebd9be77f605de98bca'
p1546
g2
(g3
g4
Vd39TO0
p1547
tp1548
Rp1549
(dp1550
g9
Nsg10
I00
sbsS'8af1a119b6df3333e30ffd27f84ddb17'
p1551
g2
(g3
g4
VjXQJ8j
p1552
tp1553
Rp1554
(dp1555
g9
Nsg10
I00
sbsS'68aabd4c4646fcd08c52f84d5385dc30'
p1556
g2
(g3
g4
VPXtGHg
p1557
tp1558
Rp1559
(dp1560
g9
Nsg10
I00
sbsS'aee3c87cc3efe49c85102b72e68834d5'
p1561
g2
(g3
g4
VlSx6fs
p1562
tp1563
Rp1564
(dp1565
g9
Nsg10
I00
sbsS'c75d767c339c7500e858411a5c6b9751'
p1566
g2
(g3
g4
VWiHCdL
p1567
tp1568
Rp1569
(dp1570
g9
Nsg10
I00
sbsS'ccacafabe512a7e89599f9d02fc6a086'
p1571
g2
(g3
g4
V9HMJ2H
p1572
tp1573
Rp1574
(dp1575
g9
Nsg10
I00
sbsS'8c0b2dabd366ad7dff964f09ff82aec7'
p1576
g2
(g3
g4
Vic0WuV
p1577
tp1578
Rp1579
(dp1580
g9
Nsg10
I00
sbsS'538725eaab346486698ffc7b71dbe1ff'
p1581
g2
(g3
g4
V37yQLS
p1582
tp1583
Rp1584
(dp1585
g9
Nsg10
I00
sbsS'66f9ca747f0490ede49c032f647860b1'
p1586
g2
(g3
g4
VsZop3a
p1587
tp1588
Rp1589
(dp1590
g9
Nsg10
I00
sbsS'077dd12e53418ec30b5c652c50f5787f'
p1591
g2
(g3
g4
VCicxEL
p1592
tp1593
Rp1594
(dp1595
g9
Nsg10
I00
sbsS'23341178089a20316e428cccfea19c21'
p1596
g2
(g3
g4
VffvvjU
p1597
tp1598
Rp1599
(dp1600
g9
Nsg10
I00
sbsS'7f1e0e40b63a8781f3efa20b1de1df37'
p1601
g2
(g3
g4
VoB7hxf
p1602
tp1603
Rp1604
(dp1605
g9
Nsg10
I00
sbsS'36294cfccbd411c5e8c1fbf8ffcd54c7'
p1606
g2
(g3
g4
VuCBIfp
p1607
tp1608
Rp1609
(dp1610
g9
Nsg10
I00
sbsS'f86e7c90924c89e1ef8a737b790d8772'
p1611
g2
(g3
g4
VSo5ImR
p1612
tp1613
Rp1614
(dp1615
g9
Nsg10
I00
sbsS'382afccb33a9f7b0105dee1a63cee11a'
p1616
g2
(g3
g4
VJLIhIz
p1617
tp1618
Rp1619
(dp1620
g9
Nsg10
I00
sbsS'22aac93d8d78277e707a02ef95386b29'
p1621
g2
(g3
g4
VuSSU6K
p1622
tp1623
Rp1624
(dp1625
g9
Nsg10
I00
sbsS'46f601d3f0a9a9f7a35d405dd8b9bcc5'
p1626
g2
(g3
g4
V1x9TaL
p1627
tp1628
Rp1629
(dp1630
g9
Nsg10
I00
sbsS'ab5701f88a3bae6a111af80d4c3ad066'
p1631
g2
(g3
g4
Vv6oZN1
p1632
tp1633
Rp1634
(dp1635
g9
Nsg10
I00
sbsS'643d3003d359f841c2e04c51aa9c68f2'
p1636
g2
(g3
g4
VmID175
p1637
tp1638
Rp1639
(dp1640
g9
Nsg10
I00
sbsS'8c3bef73e43bb7c17521e19e1c7a3102'
p1641
g2
(g3
g4
VdkOinN
p1642
tp1643
Rp1644
(dp1645
g9
Nsg10
I00
sbsS'86347a19ce77d0249ee0939d128125c8'
p1646
g2
(g3
g4
VxKpDf6
p1647
tp1648
Rp1649
(dp1650
g9
Nsg10
I00
sbsS'f43f50936fc4aa99cb627cdc9b6330bf'
p1651
g2
(g3
g4
V6B47as
p1652
tp1653
Rp1654
(dp1655
g9
Nsg10
I00
sbsS'ec6f46380bec2ca00c6219bdf2c06dd1'
p1656
g2
(g3
g4
V9RmuVK
p1657
tp1658
Rp1659
(dp1660
g9
Nsg10
I00
sbsS'955407807435725dc074370e91c49e80'
p1661
g2
(g3
g4
VODc9vh
p1662
tp1663
Rp1664
(dp1665
g9
Nsg10
I00
sbsS'6a5127a5ae3c35f1dd439e4cf70f8408'
p1666
g2
(g3
g4
V1bpvbU
p1667
tp1668
Rp1669
(dp1670
g9
Nsg10
I00
sbsS'b32ddffb492d550bb427b4123d7a54d9'
p1671
g2
(g3
g4
VOqXLln
p1672
tp1673
Rp1674
(dp1675
g9
Nsg10
I00
sbsS'20b0968faa19b6dc262eb0493b9f8714'
p1676
g2
(g3
g4
VC37l7l
p1677
tp1678
Rp1679
(dp1680
g9
Nsg10
I00
sbsS'eb8be1c977c8b8ace5d562723eb9c7d5'
p1681
g2
(g3
g4
VmjfE6T
p1682
tp1683
Rp1684
(dp1685
g9
Nsg10
I00
sbsS'ae08c8401165ed7d51e588f9d49f940c'
p1686
g2
(g3
g4
VQiedrd
p1687
tp1688
Rp1689
(dp1690
g9
Nsg10
I00
sbsS'f40911f472378789b16c91e96052e81e'
p1691
g2
(g3
g4
VEOf4xo
p1692
tp1693
Rp1694
(dp1695
g9
Nsg10
I00
sbsS'6fc4d58046ca70fffee1ad5edacf2b4d'
p1696
g2
(g3
g4
Vv6BxdP
p1697
tp1698
Rp1699
(dp1700
g9
Nsg10
I00
sbsS'bab734d0bdca57429d4688ded450da1b'
p1701
g2
(g3
g4
VHpoEWc
p1702
tp1703
Rp1704
(dp1705
g9
Nsg10
I00
sbsS'3bb5f3425ff6bcd84d89fc62784027dc'
p1706
g2
(g3
g4
VEfv3SV
p1707
tp1708
Rp1709
(dp1710
g9
Nsg10
I00
sbsS'9a2293b65aa529034fc357d9dc3464aa'
p1711
g2
(g3
g4
VP0rmSQ
p1712
tp1713
Rp1714
(dp1715
g9
Nsg10
I00
sbsS'18028e2b7b61968a46f7750021d8412e'
p1716
g2
(g3
g4
V43jAcv
p1717
tp1718
Rp1719
(dp1720
g9
Nsg10
I00
sbsS'1f3435f7a5f0ca164549e3c533d97bc9'
p1721
g2
(g3
g4
VcvLlA8
p1722
tp1723
Rp1724
(dp1725
g9
Nsg10
I00
sbsS'25378ca6c7e67e7cba53c07278ad537b'
p1726
g2
(g3
g4
VfK5wi2
p1727
tp1728
Rp1729
(dp1730
g9
Nsg10
I00
sbsS'63044e4ebfa225e128c07fe185df9265'
p1731
g2
(g3
g4
VMgwpq8
p1732
tp1733
Rp1734
(dp1735
g9
Nsg10
I00
sbsS'656fe39a9618f2464ff084a01cfea135'
p1736
g2
(g3
g4
VDfAmue
p1737
tp1738
Rp1739
(dp1740
g9
Nsg10
I00
sbsS'6260ff37f33ead0055d212c442a80c37'
p1741
g2
(g3
g4
VmdmjZw
p1742
tp1743
Rp1744
(dp1745
g9
Nsg10
I00
sbsS'80a0c7bd4a527d7bf3c344b244568eb8'
p1746
g2
(g3
g4
VzzAKwF
p1747
tp1748
Rp1749
(dp1750
g9
Nsg10
I00
sbsS'769d536e5dcd4783876cd2dd626a22cf'
p1751
g2
(g3
g4
V5ODfM8
p1752
tp1753
Rp1754
(dp1755
g9
Nsg10
I00
sbsS'b12b7374e47efb54f69dbcb8e5af8146'
p1756
g2
(g3
g4
VpReyOw
p1757
tp1758
Rp1759
(dp1760
g9
Nsg10
I00
sbsS'f60fc6641e1f39a777db41a99a832ac4'
p1761
g2
(g3
g4
V0LQg7Q
p1762
tp1763
Rp1764
(dp1765
g9
Nsg10
I00
sbsS'f294eba4eb12caaea6cc83c54636ad19'
p1766
g2
(g3
g4
Vleztls
p1767
tp1768
Rp1769
(dp1770
g9
Nsg10
I00
sbsS'75324469283865a7ebd591f3ecccbeb1'
p1771
g2
(g3
g4
V6izPba
p1772
tp1773
Rp1774
(dp1775
g9
Nsg10
I00
sbsS'b2bfd5f0ed9fd7774f3bfcae96c008ed'
p1776
g2
(g3
g4
VgckUcn
p1777
tp1778
Rp1779
(dp1780
g9
Nsg10
I00
sbsS'44d3b7b4c2e3c806995281590473c901'
p1781
g2
(g3
g4
VonoEZX
p1782
tp1783
Rp1784
(dp1785
g9
Nsg10
I00
sbsS'70bd036c5c11e441b5bb2676da45ca60'
p1786
g2
(g3
g4
Vesdmyz
p1787
tp1788
Rp1789
(dp1790
g9
Nsg10
I00
sbsS'a5777476a8063c00cc8bfb50f7959929'
p1791
g2
(g3
g4
Vl98CMj
p1792
tp1793
Rp1794
(dp1795
g9
Nsg10
I00
sbsS'e633900df216bed714b28527ebecc595'
p1796
g2
(g3
g4
VH8OEw0
p1797
tp1798
Rp1799
(dp1800
g9
Nsg10
I00
sbsS'22a5ccfe778affaef492e8ecb55eea8e'
p1801
g2
(g3
g4
VhoxZEH
p1802
tp1803
Rp1804
(dp1805
g9
Nsg10
I00
sbsS'9317f0999471dcae74ff8842f34fffa0'
p1806
g2
(g3
g4
VNGEEi8
p1807
tp1808
Rp1809
(dp1810
g9
Nsg10
I00
sbsS'333a74e2b3dc14c9c51d8fb995c80904'
p1811
g2
(g3
g4
Vi5z4J2
p1812
tp1813
Rp1814
(dp1815
g9
Nsg10
I00
sbsS'7077a788b83ca98639d05823bccca41f'
p1816
g2
(g3
g4
VaJifis
p1817
tp1818
Rp1819
(dp1820
g9
Nsg10
I00
sbsS'a7ddcecef5808354ef76994d3299d963'
p1821
g2
(g3
g4
VPBe5c6
p1822
tp1823
Rp1824
(dp1825
g9
Nsg10
I00
sbsS'dd9d72fcc094cedcbc6cb910646a3a9e'
p1826
g2
(g3
g4
VJUC2Gg
p1827
tp1828
Rp1829
(dp1830
g9
Nsg10
I00
sbsS'bb90e29eabe582e073ab720a66708382'
p1831
g2
(g3
g4
Vfav5U3
p1832
tp1833
Rp1834
(dp1835
g9
Nsg10
I00
sbsS'b710f58063d3f5b99fc23ad34338cfa0'
p1836
g2
(g3
g4
VwogO8R
p1837
tp1838
Rp1839
(dp1840
g9
Nsg10
I00
sbsS'b7a302b19db4149cc3b9b68be53f53ec'
p1841
g2
(g3
g4
VJsgdTR
p1842
tp1843
Rp1844
(dp1845
g9
Nsg10
I00
sbsS'49ed263062580f5618eb1d3a2eedadf6'
p1846
g2
(g3
g4
VJLG9Ez
p1847
tp1848
Rp1849
(dp1850
g9
Nsg10
I00
sbsS'29529f66349da287462c5e4e9dd858fc'
p1851
g2
(g3
g4
VQ5Yi2e
p1852
tp1853
Rp1854
(dp1855
g9
Nsg10
I00
sbsS'eb85ec762d767029249b4cdf7a739f50'
p1856
g2
(g3
g4
VKcJb9N
p1857
tp1858
Rp1859
(dp1860
g9
Nsg10
I00
sbsS'd946ec17b8da953842f32ae535a7a1e4'
p1861
g2
(g3
g4
VTgip6m
p1862
tp1863
Rp1864
(dp1865
g9
Nsg10
I00
sbsS'03c81db672b2f8db5de0342d7ee747ab'
p1866
g2
(g3
g4
VxkPjys
p1867
tp1868
Rp1869
(dp1870
g9
Nsg10
I00
sbsS'bb0b77965119f0e3edec8571e3a2f601'
p1871
g2
(g3
g4
V4Ogpys
p1872
tp1873
Rp1874
(dp1875
g9
Nsg10
I00
sbsS'54f383324d156d346ffce552fa5368a0'
p1876
g2
(g3
g4
V2djhgk
p1877
tp1878
Rp1879
(dp1880
g9
Nsg10
I00
sbsS'b73823e867947ea8352c5ca206e20917'
p1881
g2
(g3
g4
VIPnLkW
p1882
tp1883
Rp1884
(dp1885
g9
Nsg10
I00
sbsS'c23a99ad3f2dcfa1051e3d1efe8b90cd'
p1886
g2
(g3
g4
VJikvMD
p1887
tp1888
Rp1889
(dp1890
g9
Nsg10
I00
sbsS'9866ee350a9f7b2c8c97ca4cb03ecac6'
p1891
g2
(g3
g4
VmDEvSP
p1892
tp1893
Rp1894
(dp1895
g9
Nsg10
I00
sbsS'b6e1279bd63fb0842df5350d7a80cbbd'
p1896
g2
(g3
g4
Vli2SdZ
p1897
tp1898
Rp1899
(dp1900
g9
Nsg10
I00
sbsS'11ffa5cd695d9f65fce27d1a6b8c0fc5'
p1901
g2
(g3
g4
V4JwNbN
p1902
tp1903
Rp1904
(dp1905
g9
Nsg10
I00
sbsS'3ac9fdc3560b18f11cb9f2d8948891bf'
p1906
g2
(g3
g4
VvK6pUz
p1907
tp1908
Rp1909
(dp1910
g9
Nsg10
I00
sbsS'32508a5e8f931e4d52c190c86b0df4fb'
p1911
g2
(g3
g4
VwZ3WS3
p1912
tp1913
Rp1914
(dp1915
g9
Nsg10
I00
sbs.