(dp0
S'30256344195789053409d38ce8d9bc22'
p1
ccopy_reg
_reconstructor
p2
(csuds.sax.text
Text
p3
c__builtin__
unicode
p4
V3CA4al
p5
tp6
Rp7
(dp8
S'lang'
p9
NsS'escaped'
p10
I00
sbsS'1e496d88444102fe39278f1fcf8ac9bb'
p11
g2
(g3
g4
V0s79UX
p12
tp13
Rp14
(dp15
g9
Nsg10
I00
sbsS'1a4ebf6c830fd2528089540bce01c338'
p16
g2
(g3
g4
V1HTlfO
p17
tp18
Rp19
(dp20
g9
Nsg10
I00
sbsS'477b47af995794138427f9313aa24104'
p21
g2
(g3
g4
V6mUMmL
p22
tp23
Rp24
(dp25
g9
Nsg10
I00
sbsS'e83c6f83369141714fe247f9837e3407'
p26
g2
(g3
g4
V62kHJw
p27
tp28
Rp29
(dp30
g9
Nsg10
I00
sbsS'e9d00ba1a41cb827e70515ca81dc3b6d'
p31
g2
(g3
g4
VD19YmM
p32
tp33
Rp34
(dp35
g9
Nsg10
I00
sbsS'5097b6b431c3166131dac553ec155e36'
p36
g2
(g3
g4
VQORjTs
p37
tp38
Rp39
(dp40
g9
Nsg10
I00
sbsS'fe8437a27fbaf6d3514cc22ebeadfde2'
p41
g2
(g3
g4
VfUgN3u
p42
tp43
Rp44
(dp45
g9
Nsg10
I00
sbsS'9fcc678b5d4a81371689b96edfffc1c9'
p46
g2
(g3
g4
V6NTKEP
p47
tp48
Rp49
(dp50
g9
Nsg10
I00
sbsS'db00f4304e254c0d4a8bda7116510ae8'
p51
g2
(g3
g4
VIHyFYa
p52
tp53
Rp54
(dp55
g9
Nsg10
I00
sbsS'466c73c64e873a9804495d1ceaba0da3'
p56
g2
(g3
g4
VjmSVNu
p57
tp58
Rp59
(dp60
g9
Nsg10
I00
sbsS'00e2143bcb14fa5e5e0479904b778db9'
p61
g2
(g3
g4
VaXM3ST
p62
tp63
Rp64
(dp65
g9
Nsg10
I00
sbsS'2f72486673de4bfb73a7334721678be6'
p66
g2
(g3
g4
VswbQ6H
p67
tp68
Rp69
(dp70
g9
Nsg10
I00
sbsS'c552138dd116333107f284d11e5d18fd'
p71
g2
(g3
g4
V3j3pmf
p72
tp73
Rp74
(dp75
g9
Nsg10
I00
sbsS'290859c341d0ed3b29dd0d81f19cceef'
p76
g2
(g3
g4
VYAJepx
p77
tp78
Rp79
(dp80
g9
Nsg10
I00
sbsS'a4c629aa92dd8d53d94c7452eeb3f123'
p81
g2
(g3
g4
VzFS03K
p82
tp83
Rp84
(dp85
g9
Nsg10
I00
sbsS'2fb4b3ff6409860b9c2aef9a29f64691'
p86
g2
(g3
g4
VMP7W97
p87
tp88
Rp89
(dp90
g9
Nsg10
I00
sbsS'098b317fe4ccf65d2c672b66b9e4916f'
p91
g2
(g3
g4
VtcCvg0
p92
tp93
Rp94
(dp95
g9
Nsg10
I00
sbsS'70d4e49eb7d839d4554694c4fc80ba1c'
p96
g2
(g3
g4
VPT10rf
p97
tp98
Rp99
(dp100
g9
Nsg10
I00
sbsS'8734fbdd722f5ff8bfe2014e6d1a955a'
p101
g2
(g3
g4
VnmcmPo
p102
tp103
Rp104
(dp105
g9
Nsg10
I00
sbsS'59ccc9587dd36be7fa6e89142e1bd585'
p106
g2
(g3
g4
V666X1e
p107
tp108
Rp109
(dp110
g9
Nsg10
I00
sbsS'aef684ffd036bc862519ef22cf3bcd9b'
p111
g2
(g3
g4
VvacAuf
p112
tp113
Rp114
(dp115
g9
Nsg10
I00
sbsS'f755fca9aa0b596f98a902e57e5767b0'
p116
g2
(g3
g4
VDVQD7U
p117
tp118
Rp119
(dp120
g9
Nsg10
I00
sbsS'c7372690825b18ab52237a1a97f4b06f'
p121
g2
(g3
g4
VX2l4EP
p122
tp123
Rp124
(dp125
g9
Nsg10
I00
sbsS'86c88d228bf447bb220baec820857382'
p126
g2
(g3
g4
VrnVyjX
p127
tp128
Rp129
(dp130
g9
Nsg10
I00
sbsS'41b29708372aaa34ed318889e276fed7'
p131
g2
(g3
g4
VJYaK6b
p132
tp133
Rp134
(dp135
g9
Nsg10
I00
sbsS'808a4de3c8e36e41500829cb7b86fd8a'
p136
g2
(g3
g4
VghkCHz
p137
tp138
Rp139
(dp140
g9
Nsg10
I00
sbsS'46b92265d670cd084c80c5f44ca59de7'
p141
g2
(g3
g4
VSPrNme
p142
tp143
Rp144
(dp145
g9
Nsg10
I00
sbsS'fbc62d204161e3c27b475cd977d46688'
p146
g2
(g3
g4
VVl9zVp
p147
tp148
Rp149
(dp150
g9
Nsg10
I00
sbsS'0937cfc1a3dbc7faf6b0e0f99c22aca0'
p151
g2
(g3
g4
Vv8Lo9N
p152
tp153
Rp154
(dp155
g9
Nsg10
I00
sbsS'3c9adf90dbd0067c9069e2e238163ea0'
p156
g2
(g3
g4
V0a7kU5
p157
tp158
Rp159
(dp160
g9
Nsg10
I00
sbsS'4fcbaf3639109ae48d4d5562d3dd1f79'
p161
g2
(g3
g4
VBS9lX0
p162
tp163
Rp164
(dp165
g9
Nsg10
I00
sbsS'52198ac30e61c21b622a6255d8e3b556'
p166
g2
(g3
g4
Vc5HMDH
p167
tp168
Rp169
(dp170
g9
Nsg10
I00
sbsS'f5f59f055a9912a1e9ce99d333d6110f'
p171
g2
(g3
g4
VOJbvYL
p172
tp173
Rp174
(dp175
g9
Nsg10
I00
sbsS'e833bad8b1e51201ec9ff33281b7c7a0'
p176
g2
(g3
g4
VnAtnTK
p177
tp178
Rp179
(dp180
g9
Nsg10
I00
sbsS'62773453eec664ab6d73cb7fe0cedbae'
p181
g2
(g3
g4
VE0U0RX
p182
tp183
Rp184
(dp185
g9
Nsg10
I00
sbsS'17334eb0a50bc158d802c83178404b5b'
p186
g2
(g3
g4
VwRWDVx
p187
tp188
Rp189
(dp190
g9
Nsg10
I00
sbsS'13555674a9dfcc2ae3f5a16fffa1af67'
p191
g2
(g3
g4
VcjDMWs
p192
tp193
Rp194
(dp195
g9
Nsg10
I00
sbsS'a6f5c2f338a8b76db0fc3d91cf269d46'
p196
g2
(g3
g4
VNwmWJ3
p197
tp198
Rp199
(dp200
g9
Nsg10
I00
sbsS'9e1d398a108eed08e933bdb6a5700965'
p201
g2
(g3
g4
V7jfGTA
p202
tp203
Rp204
(dp205
g9
Nsg10
I00
sbsS'bd9128b366256cdb46ac37db7787564d'
p206
g2
(g3
g4
V1RMfya
p207
tp208
Rp209
(dp210
g9
Nsg10
I00
sbsS'57ca6231995c1d536a3d7883aaff1b41'
p211
g2
(g3
g4
VBFKNEZ
p212
tp213
Rp214
(dp215
g9
Nsg10
I00
sbsS'efdff8b6822ab048ec8f153a617d4df6'
p216
g2
(g3
g4
V2h4Acd
p217
tp218
Rp219
(dp220
g9
Nsg10
I00
sbsS'bbb2558539f55f715ad58d62ef357242'
p221
g2
(g3
g4
V1GIVX5
p222
tp223
Rp224
(dp225
g9
Nsg10
I00
sbsS'7077a788b83ca98639d05823bccca41f'
p226
g2
(g3
g4
VaJifis
p227
tp228
Rp229
(dp230
g9
Nsg10
I00
sbsS'f24c5fef8c90f4a490c13c9e9b31942d'
p231
g2
(g3
g4
VuDu9Ul
p232
tp233
Rp234
(dp235
g9
Nsg10
I00
sbsS'bb07e2c632886217f9c02c358b823c23'
p236
g2
(g3
g4
V9O0Kzw
p237
tp238
Rp239
(dp240
g9
Nsg10
I00
sbsS'dd6e5a395e95253da2aa58a1de98e496'
p241
g2
(g3
g4
VXsmZvD
p242
tp243
Rp244
(dp245
g9
Nsg10
I00
sbsS'239f802081dcfe944637441465dbd886'
p246
g2
(g3
g4
VUx5ZVD
p247
tp248
Rp249
(dp250
g9
Nsg10
I00
sbsS'01417b8700205169be6bd5839040f3f7'
p251
g2
(g3
g4
VsOyGvw
p252
tp253
Rp254
(dp255
g9
Nsg10
I00
sbsS'fd246e1a3a16f8a50d7e273e0827d375'
p256
g2
(g3
g4
VeWsDPZ
p257
tp258
Rp259
(dp260
g9
Nsg10
I00
sbsS'99cd14ce4010720d8e4c6c028f4cc652'
p261
g2
(g3
g4
VCMLrbO
p262
tp263
Rp264
(dp265
g9
Nsg10
I00
sbsS'd181d62306f91212feea923efbc5b7f1'
p266
g2
(g3
g4
VMfiz1z
p267
tp268
Rp269
(dp270
g9
Nsg10
I00
sbsS'e1be5422e43aacfcddc72e1493ce231b'
p271
g2
(g3
g4
VZNnr5K
p272
tp273
Rp274
(dp275
g9
Nsg10
I00
sbsS'e5515d7484afaebd9be77f605de98bca'
p276
g2
(g3
g4
Vd39TO0
p277
tp278
Rp279
(dp280
g9
Nsg10
I00
sbsS'8b8441465c558c1a8e06f1eb68a7ba32'
p281
g2
(g3
g4
V5NoiNV
p282
tp283
Rp284
(dp285
g9
Nsg10
I00
sbsS'617ad0790a2b008c9e8e648591efe1e1'
p286
g2
(g3
g4
VaVOUjp
p287
tp288
Rp289
(dp290
g9
Nsg10
I00
sbsS'b320af637a950c4315e2afde4c11dbe3'
p291
g2
(g3
g4
Vozqyhd
p292
tp293
Rp294
(dp295
g9
Nsg10
I00
sbsS'c75d767c339c7500e858411a5c6b9751'
p296
g2
(g3
g4
VWiHCdL
p297
tp298
Rp299
(dp300
g9
Nsg10
I00
sbsS'860641c83670979d25fefe6412cf3825'
p301
g2
(g3
g4
VVmzKX7
p302
tp303
Rp304
(dp305
g9
Nsg10
I00
sbsS'85f5c682d231cee8b629eb00409cd16d'
p306
g2
(g3
g4
VkpzPYX
p307
tp308
Rp309
(dp310
g9
Nsg10
I00
sbsS'c75005a75934c6f40b78b8e349adad1a'
p311
g2
(g3
g4
ViU0V1h
p312
tp313
Rp314
(dp315
g9
Nsg10
I00
sbsS'119b02fd9cb186543829ea38b34909e5'
p316
g2
(g3
g4
VmvHxN7
p317
tp318
Rp319
(dp320
g9
Nsg10
I00
sbsS'8c0b2dabd366ad7dff964f09ff82aec7'
p321
g2
(g3
g4
Vic0WuV
p322
tp323
Rp324
(dp325
g9
Nsg10
I00
sbsS'5ef2c3fcbfb6b9d4704750cc46260e35'
p326
g2
(g3
g4
VzYaxsj
p327
tp328
Rp329
(dp330
g9
Nsg10
I00
sbsS'538725eaab346486698ffc7b71dbe1ff'
p331
g2
(g3
g4
V37yQLS
p332
tp333
Rp334
(dp335
g9
Nsg10
I00
sbsS'7c34f6a5d5c5363fec465c30c9f22b7f'
p336
g2
(g3
g4
VQRBCNj
p337
tp338
Rp339
(dp340
g9
Nsg10
I00
sbsS'4b092d10f594c3d5c0824acdcb839f55'
p341
g2
(g3
g4
VrnHRA1
p342
tp343
Rp344
(dp345
g9
Nsg10
I00
sbsS'66f9ca747f0490ede49c032f647860b1'
p346
g2
(g3
g4
VsZop3a
p347
tp348
Rp349
(dp350
g9
Nsg10
I00
sbsS'35899ec14d4615abe33b7574de6096d1'
p351
g2
(g3
g4
VmJB0g1
p352
tp353
Rp354
(dp355
g9
Nsg10
I00
sbsS'526933a4bec1b1fce8b7f338556a42c7'
p356
g2
(g3
g4
VxBSFYE
p357
tp358
Rp359
(dp360
g9
Nsg10
I00
sbsS'40ffe11029d8bb0d39e10b90b6273fd1'
p361
g2
(g3
g4
VesoECv
p362
tp363
Rp364
(dp365
g9
Nsg10
I00
sbsS'd317cef54bfb88f2b8d079b4fdaffce3'
p366
g2
(g3
g4
VaOpMR1
p367
tp368
Rp369
(dp370
g9
Nsg10
I00
sbsS'c0787cf00be5cf7403323c12ddd94178'
p371
g2
(g3
g4
VF3k3qo
p372
tp373
Rp374
(dp375
g9
Nsg10
I00
sbsS'382afccb33a9f7b0105dee1a63cee11a'
p376
g2
(g3
g4
VJLIhIz
p377
tp378
Rp379
(dp380
g9
Nsg10
I00
sbsS'22aac93d8d78277e707a02ef95386b29'
p381
g2
(g3
g4
VuSSU6K
p382
tp383
Rp384
(dp385
g9
Nsg10
I00
sbsS'd23d857ba120a9166b613316011befe6'
p386
g2
(g3
g4
VSd7hwk
p387
tp388
Rp389
(dp390
g9
Nsg10
I00
sbsS'eb66a7fa866945879543f5150aba72fc'
p391
g2
(g3
g4
VYBRu0R
p392
tp393
Rp394
(dp395
g9
Nsg10
I00
sbsS'ec90240d90c211768aca215dc9ea64fe'
p396
g2
(g3
g4
V7vEZY5
p397
tp398
Rp399
(dp400
g9
Nsg10
I00
sbsS'8c7d5da431a1df5dc9827718ceed2bd1'
p401
g2
(g3
g4
VSnyqKH
p402
tp403
Rp404
(dp405
g9
Nsg10
I00
sbsS'69310d5a50bec4d0ef508379c6ac1eae'
p406
g2
(g3
g4
VRIzZKJ
p407
tp408
Rp409
(dp410
g9
Nsg10
I00
sbsS'e70fa2ac9e3f6a70e042b5662d04b320'
p411
g2
(g3
g4
VF7iPTE
p412
tp413
Rp414
(dp415
g9
Nsg10
I00
sbsS'88926431b04e13be7fd22160b5aa9b14'
p416
g2
(g3
g4
VquhHw1
p417
tp418
Rp419
(dp420
g9
Nsg10
I00
sbsS'50c799effb7410fb5e173627cbd009ff'
p421
g2
(g3
g4
VI6O4RU
p422
tp423
Rp424
(dp425
g9
Nsg10
I00
sbsS'8dd8a6d0b5042602a854148f9d25dfac'
p426
g2
(g3
g4
VftSQik
p427
tp428
Rp429
(dp430
g9
Nsg10
I00
sbsS'7200c09e8d0eb5f8369eb4f8fad3d758'
p431
g2
(g3
g4
VD7ruaQ
p432
tp433
Rp434
(dp435
g9
Nsg10
I00
sbsS'2ea24ed1ae852e6359f0150b43311388'
p436
g2
(g3
g4
VDdYH0J
p437
tp438
Rp439
(dp440
g9
Nsg10
I00
sbsS'e852ad3f3be3d7679d48f5ac6eafcc4d'
p441
g2
(g3
g4
V8LslL7
p442
tp443
Rp444
(dp445
g9
Nsg10
I00
sbsS'955407807435725dc074370e91c49e80'
p446
g2
(g3
g4
VODc9vh
p447
tp448
Rp449
(dp450
g9
Nsg10
I00
sbsS'4d76af2dab4c75b1ff24bf7dfc72dbe4'
p451
g2
(g3
g4
VmSfWdp
p452
tp453
Rp454
(dp455
g9
Nsg10
I00
sbsS'd2e89e78d7c3f3d33e02cf7a0cd212aa'
p456
g2
(g3
g4
VXz9Pg5
p457
tp458
Rp459
(dp460
g9
Nsg10
I00
sbsS'4a5e1c127ae3e9de050cb882956493ed'
p461
g2
(g3
g4
V8tSek3
p462
tp463
Rp464
(dp465
g9
Nsg10
I00
sbsS'bfd0f7ca1682301d821eb8d4bf2c633a'
p466
g2
(g3
g4
VjBjmZp
p467
tp468
Rp469
(dp470
g9
Nsg10
I00
sbsS'eb8be1c977c8b8ace5d562723eb9c7d5'
p471
g2
(g3
g4
VmjfE6T
p472
tp473
Rp474
(dp475
g9
Nsg10
I00
sbsS'5a33c52bab689a057edd063c15834e74'
p476
g2
(g3
g4
VLDpYcO
p477
tp478
Rp479
(dp480
g9
Nsg10
I00
sbsS'6cd342b22c596b43aa34ce975917b579'
p481
g2
(g3
g4
V45VBXm
p482
tp483
Rp484
(dp485
g9
Nsg10
I00
sbsS'a013abc276ba980331f7053f2822f1b0'
p486
g2
(g3
g4
VP4ayzW
p487
tp488
Rp489
(dp490
g9
Nsg10
I00
sbsS'9316f21b9d68230d0815ea104df5e54c'
p491
g2
(g3
g4
VzjFF9S
p492
tp493
Rp494
(dp495
g9
Nsg10
I00
sbsS'ae08c8401165ed7d51e588f9d49f940c'
p496
g2
(g3
g4
VQiedrd
p497
tp498
Rp499
(dp500
g9
Nsg10
I00
sbsS'b000d76fb4df5191331b1d1678634f29'
p501
g2
(g3
g4
V7iIDio
p502
tp503
Rp504
(dp505
g9
Nsg10
I00
sbsS'afadcc0371753413e5d5aaba4ad5310b'
p506
g2
(g3
g4
Vv6gdat
p507
tp508
Rp509
(dp510
g9
Nsg10
I00
sbsS'9a2293b65aa529034fc357d9dc3464aa'
p511
g2
(g3
g4
VP0rmSQ
p512
tp513
Rp514
(dp515
g9
Nsg10
I00
sbsS'7e5fbb086b12beeaa3b5b64fc93d981b'
p516
g2
(g3
g4
VEnarSD
p517
tp518
Rp519
(dp520
g9
Nsg10
I00
sbsS'1f3435f7a5f0ca164549e3c533d97bc9'
p521
g2
(g3
g4
VcvLlA8
p522
tp523
Rp524
(dp525
g9
Nsg10
I00
sbsS'b12b7374e47efb54f69dbcb8e5af8146'
p526
g2
(g3
g4
VpReyOw
p527
tp528
Rp529
(dp530
g9
Nsg10
I00
sbsS'fc617ccb710cd555d877583d15733901'
p531
g2
(g3
g4
VjLrzeh
p532
tp533
Rp534
(dp535
g9
Nsg10
I00
sbsS'479b3cb97b8654b18943e0ef7933b71b'
p536
g2
(g3
g4
V6n3oSs
p537
tp538
Rp539
(dp540
g9
Nsg10
I00
sbsS'c8a34ac2f783448424167c25e626c3ac'
p541
g2
(g3
g4
VQEXGNu
p542
tp543
Rp544
(dp545
g9
Nsg10
I00
sbsS'eeca677b9be1c866e23508337e53925e'
p546
g2
(g3
g4
VteKmvq
p547
tp548
Rp549
(dp550
g9
Nsg10
I00
sbsS'7b768e6a6b682a870dae4ac5603c3dc2'
p551
g2
(g3
g4
VoVYWZA
p552
tp553
Rp554
(dp555
g9
Nsg10
I00
sbsS'6260ff37f33ead0055d212c442a80c37'
p556
g2
(g3
g4
VmdmjZw
p557
tp558
Rp559
(dp560
g9
Nsg10
I00
sbsS'c31d313093875b14bc88244f6b322701'
p561
g2
(g3
g4
VqaaExa
p562
tp563
Rp564
(dp565
g9
Nsg10
I00
sbsS'80a0c7bd4a527d7bf3c344b244568eb8'
p566
g2
(g3
g4
VzzAKwF
p567
tp568
Rp569
(dp570
g9
Nsg10
I00
sbsS'1cc801604d6d5dc8f7651ef44c613f9c'
p571
g2
(g3
g4
V9wrpFI
p572
tp573
Rp574
(dp575
g9
Nsg10
I00
sbsS'769d536e5dcd4783876cd2dd626a22cf'
p576
g2
(g3
g4
V5ODfM8
p577
tp578
Rp579
(dp580
g9
Nsg10
I00
sbsS'f493e20702f74b0d29109aee43ff76e1'
p581
g2
(g3
g4
VwKvwVO
p582
tp583
Rp584
(dp585
g9
Nsg10
I00
sbsS'f46abe5cdc92c7a47f9dc6ba181ae951'
p586
g2
(g3
g4
VTKeIIJ
p587
tp588
Rp589
(dp590
g9
Nsg10
I00
sbsS'bcd375be628937e7bffb5ce24e05455c'
p591
g2
(g3
g4
VRAYmrn
p592
tp593
Rp594
(dp595
g9
Nsg10
I00
sbsS'f294eba4eb12caaea6cc83c54636ad19'
p596
g2
(g3
g4
Vleztls
p597
tp598
Rp599
(dp600
g9
Nsg10
I00
sbsS'943918c7ba0ec22d7ac7bc1f2ccdb82c'
p601
g2
(g3
g4
V5aZf3b
p602
tp603
Rp604
(dp605
g9
Nsg10
I00
sbsS'75250987feeb1d9313a213e200e8c7d7'
p606
g2
(g3
g4
V4JWpDq
p607
tp608
Rp609
(dp610
g9
Nsg10
I00
sbsS'b4edcae4da50ea5365245f86839315b9'
p611
g2
(g3
g4
V1bOKKL
p612
tp613
Rp614
(dp615
g9
Nsg10
I00
sbsS'de58cf4b45c0c72922c42db31f4a69e5'
p616
g2
(g3
g4
VEO5umY
p617
tp618
Rp619
(dp620
g9
Nsg10
I00
sbsS'4e7e856d7f497d19142bd271591b14b3'
p621
g2
(g3
g4
VAKQWpB
p622
tp623
Rp624
(dp625
g9
Nsg10
I00
sbsS'f695c3dac97a303d5bff8105c2051b42'
p626
g2
(g3
g4
VxDODG2
p627
tp628
Rp629
(dp630
g9
Nsg10
I00
sbsS'4129564a1c7b47b00ec0786993908120'
p631
g2
(g3
g4
VsJMmWm
p632
tp633
Rp634
(dp635
g9
Nsg10
I00
sbsS'367ef8e10412ee18b39c7d2447f61b7f'
p636
g2
(g3
g4
ViloMDW
p637
tp638
Rp639
(dp640
g9
Nsg10
I00
sbsS'09b0f5ebafcf85d22e88a1a5395935a0'
p641
g2
(g3
g4
VWkTGHo
p642
tp643
Rp644
(dp645
g9
Nsg10
I00
sbsS'70bd036c5c11e441b5bb2676da45ca60'
p646
g2
(g3
g4
Vesdmyz
p647
tp648
Rp649
(dp650
g9
Nsg10
I00
sbsS'36ab82be3eaea557a80d0e2567e727ee'
p651
g2
(g3
g4
V87TaJm
p652
tp653
Rp654
(dp655
g9
Nsg10
I00
sbsS'ba89a8f6b77aac12fffd163b2dc8f64c'
p656
g2
(g3
g4
VSx8gHw
p657
tp658
Rp659
(dp660
g9
Nsg10
I00
sbsS'a5777476a8063c00cc8bfb50f7959929'
p661
g2
(g3
g4
Vl98CMj
p662
tp663
Rp664
(dp665
g9
Nsg10
I00
sbsS'e633900df216bed714b28527ebecc595'
p666
g2
(g3
g4
VH8OEw0
p667
tp668
Rp669
(dp670
g9
Nsg10
I00
sbsS'22a5ccfe778affaef492e8ecb55eea8e'
p671
g2
(g3
g4
VhoxZEH
p672
tp673
Rp674
(dp675
g9
Nsg10
I00
sbsS'fdf631eb0ab4787c4db7332bdf1ce7ca'
p676
g2
(g3
g4
VcB1u9Q
p677
tp678
Rp679
(dp680
g9
Nsg10
I00
sbsS'44e75a6370a71a4616136e955871b4ac'
p681
g2
(g3
g4
VsCtx00
p682
tp683
Rp684
(dp685
g9
Nsg10
I00
sbsS'b3eed07b49c6fb3393f0a9481bd4e52d'
p686
g2
(g3
g4
VmoW94B
p687
tp688
Rp689
(dp690
g9
Nsg10
I00
sbsS'333a74e2b3dc14c9c51d8fb995c80904'
p691
g2
(g3
g4
Vi5z4J2
p692
tp693
Rp694
(dp695
g9
Nsg10
I00
sbsS'6d06b3fe18b9a2b7fc9e9944d3f32331'
p696
g2
(g3
g4
VSfc3LZ
p697
tp698
Rp699
(dp700
g9
Nsg10
I00
sbsS'c8411bbe6ed456c89c6ec6ca84e46cee'
p701
g2
(g3
g4
VQZvuiM
p702
tp703
Rp704
(dp705
g9
Nsg10
I00
sbsS'b86f92ae4a3d3ff59e7a337af5f22938'
p706
g2
(g3
g4
VAn2qRA
p707
tp708
Rp709
(dp710
g9
Nsg10
I00
sbsS'6a6ac1e5f5e41876681d31aef01a0872'
p711
g2
(g3
g4
Vt6Tiuu
p712
tp713
Rp714
(dp715
g9
Nsg10
I00
sbsS'6f08112659d765ab411c694956d99e1f'
p716
g2
(g3
g4
VBifNLh
p717
tp718
Rp719
(dp720
g9
Nsg10
I00
sbsS'0e0463d7c3693281bc10974bfc701bc8'
p721
g2
(g3
g4
VTLwsaK
p722
tp723
Rp724
(dp725
g9
Nsg10
I00
sbsS'49ed263062580f5618eb1d3a2eedadf6'
p726
g2
(g3
g4
VJLG9Ez
p727
tp728
Rp729
(dp730
g9
Nsg10
I00
sbsS'29529f66349da287462c5e4e9dd858fc'
p731
g2
(g3
g4
VQ5Yi2e
p732
tp733
Rp734
(dp735
g9
Nsg10
I00
sbsS'f210df3826e74727b055c83f9d3d13bd'
p736
g2
(g3
g4
V2f5bQc
p737
tp738
Rp739
(dp740
g9
Nsg10
I00
sbsS'9705a0a9410150e0a686427d08a07b88'
p741
g2
(g3
g4
VHPOjVT
p742
tp743
Rp744
(dp745
g9
Nsg10
I00
sbsS'43529d2edd67fde1ddea712fb2d96993'
p746
g2
(g3
g4
V6RvXk3
p747
tp748
Rp749
(dp750
g9
Nsg10
I00
sbsS'd946ec17b8da953842f32ae535a7a1e4'
p751
g2
(g3
g4
VTgip6m
p752
tp753
Rp754
(dp755
g9
Nsg10
I00
sbsS'3bb5f3425ff6bcd84d89fc62784027dc'
p756
g2
(g3
g4
VEfv3SV
p757
tp758
Rp759
(dp760
g9
Nsg10
I00
sbsS'bb0b77965119f0e3edec8571e3a2f601'
p761
g2
(g3
g4
V4Ogpys
p762
tp763
Rp764
(dp765
g9
Nsg10
I00
sbsS'0c305fb3a137cbb3993e31899c596ab1'
p766
g2
(g3
g4
VkzJUpB
p767
tp768
Rp769
(dp770
g9
Nsg10
I00
sbsS'54f383324d156d346ffce552fa5368a0'
p771
g2
(g3
g4
V2djhgk
p772
tp773
Rp774
(dp775
g9
Nsg10
I00
sbsS'a3fea72331188a4a2d9288599dc4eba8'
p776
g2
(g3
g4
V9zeg5F
p777
tp778
Rp779
(dp780
g9
Nsg10
I00
sbsS'6e68c7ac6a7a3a5df4db8fbe58dc6c73'
p781
g2
(g3
g4
VOIJkjX
p782
tp783
Rp784
(dp785
g9
Nsg10
I00
sbsS'c2c04960af41f4b2d933b5424a1046f7'
p786
g2
(g3
g4
VRa0D80
p787
tp788
Rp789
(dp790
g9
Nsg10
I00
sbsS'b4914242810d82425d8558403f604de3'
p791
g2
(g3
g4
V7E4F0B
p792
tp793
Rp794
(dp795
g9
Nsg10
I00
sbsS'7a5512bfd66144eaaef056c66861b533'
p796
g2
(g3
g4
VNxbAXH
p797
tp798
Rp799
(dp800
g9
Nsg10
I00
sbsS'8af1a119b6df3333e30ffd27f84ddb17'
p801
g2
(g3
g4
VjXQJ8j
p802
tp803
Rp804
(dp805
g9
Nsg10
I00
sbsS'd41d8cd98f00b204e9800998ecf8427e'
p806
g2
(g3
g4
VrFJzKF
p807
tp808
Rp809
(dp810
g9
Nsg10
I00
sbsS'3ac9fdc3560b18f11cb9f2d8948891bf'
p811
g2
(g3
g4
VvK6pUz
p812
tp813
Rp814
(dp815
g9
Nsg10
I00
sbsS'32508a5e8f931e4d52c190c86b0df4fb'
p816
g2
(g3
g4
VwZ3WS3
p817
tp818
Rp819
(dp820
g9
Nsg10
I00
sbs.