(dp0
S'd0e4f1cd3ec3c885ac81e1afd7c35564'
p1
ccopy_reg
_reconstructor
p2
(csuds.sax.text
Text
p3
c__builtin__
unicode
p4
VRo89BO
p5
tp6
Rp7
(dp8
S'lang'
p9
NsS'escaped'
p10
I00
sbsS'30256344195789053409d38ce8d9bc22'
p11
g2
(g3
g4
V3CA4al
p12
tp13
Rp14
(dp15
g9
Nsg10
I00
sbsS'a9f5b442351493390b672574a3d6201d'
p16
g2
(g3
g4
VaWwgPw
p17
tp18
Rp19
(dp20
g9
Nsg10
I00
sbsS'1e496d88444102fe39278f1fcf8ac9bb'
p21
g2
(g3
g4
V0s79UX
p22
tp23
Rp24
(dp25
g9
Nsg10
I00
sbsS'1a4ebf6c830fd2528089540bce01c338'
p26
g2
(g3
g4
V1HTlfO
p27
tp28
Rp29
(dp30
g9
Nsg10
I00
sbsS'41b2fb98574cf6393373cd0c8a56f6a4'
p31
g2
(g3
g4
VitkwbP
p32
tp33
Rp34
(dp35
g9
Nsg10
I00
sbsS'477b47af995794138427f9313aa24104'
p36
g2
(g3
g4
V6mUMmL
p37
tp38
Rp39
(dp40
g9
Nsg10
I00
sbsS'e83c6f83369141714fe247f9837e3407'
p41
g2
(g3
g4
V62kHJw
p42
tp43
Rp44
(dp45
g9
Nsg10
I00
sbsS'e9d00ba1a41cb827e70515ca81dc3b6d'
p46
g2
(g3
g4
VD19YmM
p47
tp48
Rp49
(dp50
g9
Nsg10
I00
sbsS'5097b6b431c3166131dac553ec155e36'
p51
g2
(g3
g4
VQORjTs
p52
tp53
Rp54
(dp55
g9
Nsg10
I00
sbsS'fe8437a27fbaf6d3514cc22ebeadfde2'
p56
g2
(g3
g4
VfUgN3u
p57
tp58
Rp59
(dp60
g9
Nsg10
I00
sbsS'9fcc678b5d4a81371689b96edfffc1c9'
p61
g2
(g3
g4
V6NTKEP
p62
tp63
Rp64
(dp65
g9
Nsg10
I00
sbsS'7818ebbe8fe5baea78437971cd5a28ae'
p66
g2
(g3
g4
VRfJQw8
p67
tp68
Rp69
(dp70
g9
Nsg10
I00
sbsS'98d83cca8c71a6fb8ae0802a59704571'
p71
g2
(g3
g4
VMV4Ba6
p72
tp73
Rp74
(dp75
g9
Nsg10
I00
sbsS'db00f4304e254c0d4a8bda7116510ae8'
p76
g2
(g3
g4
VIHyFYa
p77
tp78
Rp79
(dp80
g9
Nsg10
I00
sbsS'466c73c64e873a9804495d1ceaba0da3'
p81
g2
(g3
g4
VjmSVNu
p82
tp83
Rp84
(dp85
g9
Nsg10
I00
sbsS'00e2143bcb14fa5e5e0479904b778db9'
p86
g2
(g3
g4
VaXM3ST
p87
tp88
Rp89
(dp90
g9
Nsg10
I00
sbsS'2f72486673de4bfb73a7334721678be6'
p91
g2
(g3
g4
VswbQ6H
p92
tp93
Rp94
(dp95
g9
Nsg10
I00
sbsS'c552138dd116333107f284d11e5d18fd'
p96
g2
(g3
g4
V3j3pmf
p97
tp98
Rp99
(dp100
g9
Nsg10
I00
sbsS'759b7030b60806b84ae040666100b41b'
p101
g2
(g3
g4
VhCrlWh
p102
tp103
Rp104
(dp105
g9
Nsg10
I00
sbsS'f6080e5e9a8bae92734b2cbf1664d6b2'
p106
g2
(g3
g4
VuWWzrY
p107
tp108
Rp109
(dp110
g9
Nsg10
I00
sbsS'290859c341d0ed3b29dd0d81f19cceef'
p111
g2
(g3
g4
VYAJepx
p112
tp113
Rp114
(dp115
g9
Nsg10
I00
sbsS'a4c629aa92dd8d53d94c7452eeb3f123'
p116
g2
(g3
g4
VzFS03K
p117
tp118
Rp119
(dp120
g9
Nsg10
I00
sbsS'2fb4b3ff6409860b9c2aef9a29f64691'
p121
g2
(g3
g4
VMP7W97
p122
tp123
Rp124
(dp125
g9
Nsg10
I00
sbsS'098b317fe4ccf65d2c672b66b9e4916f'
p126
g2
(g3
g4
VtcCvg0
p127
tp128
Rp129
(dp130
g9
Nsg10
I00
sbsS'70d4e49eb7d839d4554694c4fc80ba1c'
p131
g2
(g3
g4
VPT10rf
p132
tp133
Rp134
(dp135
g9
Nsg10
I00
sbsS'8734fbdd722f5ff8bfe2014e6d1a955a'
p136
g2
(g3
g4
VnmcmPo
p137
tp138
Rp139
(dp140
g9
Nsg10
I00
sbsS'59ccc9587dd36be7fa6e89142e1bd585'
p141
g2
(g3
g4
V666X1e
p142
tp143
Rp144
(dp145
g9
Nsg10
I00
sbsS'aef684ffd036bc862519ef22cf3bcd9b'
p146
g2
(g3
g4
VvacAuf
p147
tp148
Rp149
(dp150
g9
Nsg10
I00
sbsS'f755fca9aa0b596f98a902e57e5767b0'
p151
g2
(g3
g4
VDVQD7U
p152
tp153
Rp154
(dp155
g9
Nsg10
I00
sbsS'63044e4ebfa225e128c07fe185df9265'
p156
g2
(g3
g4
VMgwpq8
p157
tp158
Rp159
(dp160
g9
Nsg10
I00
sbsS'fd3fe8e362644375bfb459d621bcf60e'
p161
g2
(g3
g4
Vm8nPse
p162
tp163
Rp164
(dp165
g9
Nsg10
I00
sbsS'f988886470331dccc8ec086c41bfafcd'
p166
g2
(g3
g4
Vqoy8RA
p167
tp168
Rp169
(dp170
g9
Nsg10
I00
sbsS'c7372690825b18ab52237a1a97f4b06f'
p171
g2
(g3
g4
VX2l4EP
p172
tp173
Rp174
(dp175
g9
Nsg10
I00
sbsS'c62179eed44a3734bce5a34470196950'
p176
g2
(g3
g4
VVoSNBB
p177
tp178
Rp179
(dp180
g9
Nsg10
I00
sbsS'86c88d228bf447bb220baec820857382'
p181
g2
(g3
g4
VrnVyjX
p182
tp183
Rp184
(dp185
g9
Nsg10
I00
sbsS'34f277199fb48867873773f7b1112966'
p186
g2
(g3
g4
VPTqdv9
p187
tp188
Rp189
(dp190
g9
Nsg10
I00
sbsS'b73672b191ffda7fbfa81096b2bf4746'
p191
g2
(g3
g4
VF9vakc
p192
tp193
Rp194
(dp195
g9
Nsg10
I00
sbsS'38bee8826e7b363909bb89d233df1fa9'
p196
g2
(g3
g4
Vi4MCAe
p197
tp198
Rp199
(dp200
g9
Nsg10
I00
sbsS'41b29708372aaa34ed318889e276fed7'
p201
g2
(g3
g4
VJYaK6b
p202
tp203
Rp204
(dp205
g9
Nsg10
I00
sbsS'808a4de3c8e36e41500829cb7b86fd8a'
p206
g2
(g3
g4
VghkCHz
p207
tp208
Rp209
(dp210
g9
Nsg10
I00
sbsS'5dedf65c8171c537817bcf442d59f1a2'
p211
g2
(g3
g4
VS3tWCH
p212
tp213
Rp214
(dp215
g9
Nsg10
I00
sbsS'46b92265d670cd084c80c5f44ca59de7'
p216
g2
(g3
g4
VSPrNme
p217
tp218
Rp219
(dp220
g9
Nsg10
I00
sbsS'fbc62d204161e3c27b475cd977d46688'
p221
g2
(g3
g4
VVl9zVp
p222
tp223
Rp224
(dp225
g9
Nsg10
I00
sbsS'0937cfc1a3dbc7faf6b0e0f99c22aca0'
p226
g2
(g3
g4
Vv8Lo9N
p227
tp228
Rp229
(dp230
g9
Nsg10
I00
sbsS'3c9adf90dbd0067c9069e2e238163ea0'
p231
g2
(g3
g4
V0a7kU5
p232
tp233
Rp234
(dp235
g9
Nsg10
I00
sbsS'4fcbaf3639109ae48d4d5562d3dd1f79'
p236
g2
(g3
g4
VBS9lX0
p237
tp238
Rp239
(dp240
g9
Nsg10
I00
sbsS'52198ac30e61c21b622a6255d8e3b556'
p241
g2
(g3
g4
Vc5HMDH
p242
tp243
Rp244
(dp245
g9
Nsg10
I00
sbsS'f5f59f055a9912a1e9ce99d333d6110f'
p246
g2
(g3
g4
VOJbvYL
p247
tp248
Rp249
(dp250
g9
Nsg10
I00
sbsS'e833bad8b1e51201ec9ff33281b7c7a0'
p251
g2
(g3
g4
VnAtnTK
p252
tp253
Rp254
(dp255
g9
Nsg10
I00
sbsS'b0025f65f266721c71dfea4c6dc6cddf'
p256
g2
(g3
g4
V5QUDVS
p257
tp258
Rp259
(dp260
g9
Nsg10
I00
sbsS'62773453eec664ab6d73cb7fe0cedbae'
p261
g2
(g3
g4
VE0U0RX
p262
tp263
Rp264
(dp265
g9
Nsg10
I00
sbsS'17334eb0a50bc158d802c83178404b5b'
p266
g2
(g3
g4
VwRWDVx
p267
tp268
Rp269
(dp270
g9
Nsg10
I00
sbsS'aa9c5316a8f082bab4ada96abdafe3a6'
p271
g2
(g3
g4
VlIip2D
p272
tp273
Rp274
(dp275
g9
Nsg10
I00
sbsS'13555674a9dfcc2ae3f5a16fffa1af67'
p276
g2
(g3
g4
VcjDMWs
p277
tp278
Rp279
(dp280
g9
Nsg10
I00
sbsS'e066ce5de88136cbd87c5961654e22f4'
p281
g2
(g3
g4
V4zLC9g
p282
tp283
Rp284
(dp285
g9
Nsg10
I00
sbsS'a6f5c2f338a8b76db0fc3d91cf269d46'
p286
g2
(g3
g4
VNwmWJ3
p287
tp288
Rp289
(dp290
g9
Nsg10
I00
sbsS'57cc554c9e06adf00046e29b792138b8'
p291
g2
(g3
g4
VZD7gLK
p292
tp293
Rp294
(dp295
g9
Nsg10
I00
sbsS'bb0b0b357378f765b9291a40dc3fcc62'
p296
g2
(g3
g4
VXSe4cm
p297
tp298
Rp299
(dp300
g9
Nsg10
I00
sbsS'9e1d398a108eed08e933bdb6a5700965'
p301
g2
(g3
g4
V7jfGTA
p302
tp303
Rp304
(dp305
g9
Nsg10
I00
sbsS'6770e8a234f24420450d74803d976aca'
p306
g2
(g3
g4
VGw3WaT
p307
tp308
Rp309
(dp310
g9
Nsg10
I00
sbsS'bd9128b366256cdb46ac37db7787564d'
p311
g2
(g3
g4
V1RMfya
p312
tp313
Rp314
(dp315
g9
Nsg10
I00
sbsS'57ca6231995c1d536a3d7883aaff1b41'
p316
g2
(g3
g4
VBFKNEZ
p317
tp318
Rp319
(dp320
g9
Nsg10
I00
sbsS'efdff8b6822ab048ec8f153a617d4df6'
p321
g2
(g3
g4
V2h4Acd
p322
tp323
Rp324
(dp325
g9
Nsg10
I00
sbsS'bbb2558539f55f715ad58d62ef357242'
p326
g2
(g3
g4
V1GIVX5
p327
tp328
Rp329
(dp330
g9
Nsg10
I00
sbsS'7077a788b83ca98639d05823bccca41f'
p331
g2
(g3
g4
VaJifis
p332
tp333
Rp334
(dp335
g9
Nsg10
I00
sbsS'f24c5fef8c90f4a490c13c9e9b31942d'
p336
g2
(g3
g4
VuDu9Ul
p337
tp338
Rp339
(dp340
g9
Nsg10
I00
sbsS'bb07e2c632886217f9c02c358b823c23'
p341
g2
(g3
g4
V9O0Kzw
p342
tp343
Rp344
(dp345
g9
Nsg10
I00
sbsS'dd6e5a395e95253da2aa58a1de98e496'
p346
g2
(g3
g4
VXsmZvD
p347
tp348
Rp349
(dp350
g9
Nsg10
I00
sbsS'8c0b2dabd366ad7dff964f09ff82aec7'
p351
g2
(g3
g4
Vic0WuV
p352
tp353
Rp354
(dp355
g9
Nsg10
I00
sbsS'239f802081dcfe944637441465dbd886'
p356
g2
(g3
g4
VUx5ZVD
p357
tp358
Rp359
(dp360
g9
Nsg10
I00
sbsS'01417b8700205169be6bd5839040f3f7'
p361
g2
(g3
g4
VsOyGvw
p362
tp363
Rp364
(dp365
g9
Nsg10
I00
sbsS'fd246e1a3a16f8a50d7e273e0827d375'
p366
g2
(g3
g4
VeWsDPZ
p367
tp368
Rp369
(dp370
g9
Nsg10
I00
sbsS'99cd14ce4010720d8e4c6c028f4cc652'
p371
g2
(g3
g4
VCMLrbO
p372
tp373
Rp374
(dp375
g9
Nsg10
I00
sbsS'd181d62306f91212feea923efbc5b7f1'
p376
g2
(g3
g4
VMfiz1z
p377
tp378
Rp379
(dp380
g9
Nsg10
I00
sbsS'3560228625ae5ab570e3cdd3541e02b8'
p381
g2
(g3
g4
VS3nCRy
p382
tp383
Rp384
(dp385
g9
Nsg10
I00
sbsS'0252b4bc0140be29d08a52f8a3606710'
p386
g2
(g3
g4
V6ui0jo
p387
tp388
Rp389
(dp390
g9
Nsg10
I00
sbsS'7d4a9a34343ca7127b5a34430100b526'
p391
g2
(g3
g4
VZ6D4Vt
p392
tp393
Rp394
(dp395
g9
Nsg10
I00
sbsS'e1be5422e43aacfcddc72e1493ce231b'
p396
g2
(g3
g4
VZNnr5K
p397
tp398
Rp399
(dp400
g9
Nsg10
I00
sbsS'ae1e87beb2f6b8c0b94ccd956480d0c0'
p401
g2
(g3
g4
Vj44U70
p402
tp403
Rp404
(dp405
g9
Nsg10
I00
sbsS'e5515d7484afaebd9be77f605de98bca'
p406
g2
(g3
g4
Vd39TO0
p407
tp408
Rp409
(dp410
g9
Nsg10
I00
sbsS'8b8441465c558c1a8e06f1eb68a7ba32'
p411
g2
(g3
g4
V5NoiNV
p412
tp413
Rp414
(dp415
g9
Nsg10
I00
sbsS'617ad0790a2b008c9e8e648591efe1e1'
p416
g2
(g3
g4
VaVOUjp
p417
tp418
Rp419
(dp420
g9
Nsg10
I00
sbsS'b320af637a950c4315e2afde4c11dbe3'
p421
g2
(g3
g4
Vozqyhd
p422
tp423
Rp424
(dp425
g9
Nsg10
I00
sbsS'c75d767c339c7500e858411a5c6b9751'
p426
g2
(g3
g4
VWiHCdL
p427
tp428
Rp429
(dp430
g9
Nsg10
I00
sbsS'860641c83670979d25fefe6412cf3825'
p431
g2
(g3
g4
VVmzKX7
p432
tp433
Rp434
(dp435
g9
Nsg10
I00
sbsS'834982b47ac67c1724fc49f60e64b31e'
p436
g2
(g3
g4
VAx7Raj
p437
tp438
Rp439
(dp440
g9
Nsg10
I00
sbsS'85f5c682d231cee8b629eb00409cd16d'
p441
g2
(g3
g4
VkpzPYX
p442
tp443
Rp444
(dp445
g9
Nsg10
I00
sbsS'c75005a75934c6f40b78b8e349adad1a'
p446
g2
(g3
g4
ViU0V1h
p447
tp448
Rp449
(dp450
g9
Nsg10
I00
sbsS'14a5d10bf24c44e83b4e1f685b1a2e19'
p451
g2
(g3
g4
VoH69o7
p452
tp453
Rp454
(dp455
g9
Nsg10
I00
sbsS'548a4b65370fe443cfe5da16010f6724'
p456
g2
(g3
g4
VQRFRka
p457
tp458
Rp459
(dp460
g9
Nsg10
I00
sbsS'd4e358a261ee3855c011a13ebe7106c2'
p461
g2
(g3
g4
VGyJ46g
p462
tp463
Rp464
(dp465
g9
Nsg10
I00
sbsS'691353ea6d0edb7b4b8c8b2088d00979'
p466
g2
(g3
g4
VJBS7Rr
p467
tp468
Rp469
(dp470
g9
Nsg10
I00
sbsS'83462e0da479b7b47ba00f99b1ee9912'
p471
g2
(g3
g4
VSJE06K
p472
tp473
Rp474
(dp475
g9
Nsg10
I00
sbsS'5ef2c3fcbfb6b9d4704750cc46260e35'
p476
g2
(g3
g4
VzYaxsj
p477
tp478
Rp479
(dp480
g9
Nsg10
I00
sbsS'538725eaab346486698ffc7b71dbe1ff'
p481
g2
(g3
g4
V37yQLS
p482
tp483
Rp484
(dp485
g9
Nsg10
I00
sbsS'7c34f6a5d5c5363fec465c30c9f22b7f'
p486
g2
(g3
g4
VQRBCNj
p487
tp488
Rp489
(dp490
g9
Nsg10
I00
sbsS'06a6d73a06af5b4cd6eaf88f55d7d1dc'
p491
g2
(g3
g4
VfZNNnK
p492
tp493
Rp494
(dp495
g9
Nsg10
I00
sbsS'4b092d10f594c3d5c0824acdcb839f55'
p496
g2
(g3
g4
VrnHRA1
p497
tp498
Rp499
(dp500
g9
Nsg10
I00
sbsS'56fc8fbd97526d48a1c58d1c8d4cc0a7'
p501
g2
(g3
g4
VD6kxZe
p502
tp503
Rp504
(dp505
g9
Nsg10
I00
sbsS'526933a4bec1b1fce8b7f338556a42c7'
p506
g2
(g3
g4
VxBSFYE
p507
tp508
Rp509
(dp510
g9
Nsg10
I00
sbsS'40ffe11029d8bb0d39e10b90b6273fd1'
p511
g2
(g3
g4
VesoECv
p512
tp513
Rp514
(dp515
g9
Nsg10
I00
sbsS'66f9ca747f0490ede49c032f647860b1'
p516
g2
(g3
g4
VsZop3a
p517
tp518
Rp519
(dp520
g9
Nsg10
I00
sbsS'd317cef54bfb88f2b8d079b4fdaffce3'
p521
g2
(g3
g4
VaOpMR1
p522
tp523
Rp524
(dp525
g9
Nsg10
I00
sbsS'0e0463d7c3693281bc10974bfc701bc8'
p526
g2
(g3
g4
VTLwsaK
p527
tp528
Rp529
(dp530
g9
Nsg10
I00
sbsS'97ea08e52ecfba9f893ee223fa2cddf0'
p531
g2
(g3
g4
V0ydUcv
p532
tp533
Rp534
(dp535
g9
Nsg10
I00
sbsS'c0787cf00be5cf7403323c12ddd94178'
p536
g2
(g3
g4
VF3k3qo
p537
tp538
Rp539
(dp540
g9
Nsg10
I00
sbsS'bd3f03dd3bc131abed4c0c61aadd3671'
p541
g2
(g3
g4
VzNSgiM
p542
tp543
Rp544
(dp545
g9
Nsg10
I00
sbsS'382afccb33a9f7b0105dee1a63cee11a'
p546
g2
(g3
g4
VJLIhIz
p547
tp548
Rp549
(dp550
g9
Nsg10
I00
sbsS'22aac93d8d78277e707a02ef95386b29'
p551
g2
(g3
g4
VuSSU6K
p552
tp553
Rp554
(dp555
g9
Nsg10
I00
sbsS'75ffb917345269bcabd46c2a176fd595'
p556
g2
(g3
g4
VC39MT6
p557
tp558
Rp559
(dp560
g9
Nsg10
I00
sbsS'c872e9884eaa5e229b09d70ac8484f7f'
p561
g2
(g3
g4
VJo189x
p562
tp563
Rp564
(dp565
g9
Nsg10
I00
sbsS'd23d857ba120a9166b613316011befe6'
p566
g2
(g3
g4
VSd7hwk
p567
tp568
Rp569
(dp570
g9
Nsg10
I00
sbsS'033b50318b863b14465d794ba2e5bc6d'
p571
g2
(g3
g4
VLR2pFr
p572
tp573
Rp574
(dp575
g9
Nsg10
I00
sbsS'ec90240d90c211768aca215dc9ea64fe'
p576
g2
(g3
g4
V7vEZY5
p577
tp578
Rp579
(dp580
g9
Nsg10
I00
sbsS'35899ec14d4615abe33b7574de6096d1'
p581
g2
(g3
g4
VmJB0g1
p582
tp583
Rp584
(dp585
g9
Nsg10
I00
sbsS'90de46afa3e5aaa7655f139466a03975'
p586
g2
(g3
g4
VwFpJ43
p587
tp588
Rp589
(dp590
g9
Nsg10
I00
sbsS'8c7d5da431a1df5dc9827718ceed2bd1'
p591
g2
(g3
g4
VSnyqKH
p592
tp593
Rp594
(dp595
g9
Nsg10
I00
sbsS'59e50e91942a9a8cb1a4f16fd014df7f'
p596
g2
(g3
g4
VOit7gp
p597
tp598
Rp599
(dp600
g9
Nsg10
I00
sbsS'69310d5a50bec4d0ef508379c6ac1eae'
p601
g2
(g3
g4
VRIzZKJ
p602
tp603
Rp604
(dp605
g9
Nsg10
I00
sbsS'e70fa2ac9e3f6a70e042b5662d04b320'
p606
g2
(g3
g4
VF7iPTE
p607
tp608
Rp609
(dp610
g9
Nsg10
I00
sbsS'88926431b04e13be7fd22160b5aa9b14'
p611
g2
(g3
g4
VquhHw1
p612
tp613
Rp614
(dp615
g9
Nsg10
I00
sbsS'50c799effb7410fb5e173627cbd009ff'
p616
g2
(g3
g4
VI6O4RU
p617
tp618
Rp619
(dp620
g9
Nsg10
I00
sbsS'8dd8a6d0b5042602a854148f9d25dfac'
p621
g2
(g3
g4
VftSQik
p622
tp623
Rp624
(dp625
g9
Nsg10
I00
sbsS'ab5701f88a3bae6a111af80d4c3ad066'
p626
g2
(g3
g4
Vv6oZN1
p627
tp628
Rp629
(dp630
g9
Nsg10
I00
sbsS'7200c09e8d0eb5f8369eb4f8fad3d758'
p631
g2
(g3
g4
VD7ruaQ
p632
tp633
Rp634
(dp635
g9
Nsg10
I00
sbsS'7a5512bfd66144eaaef056c66861b533'
p636
g2
(g3
g4
VNxbAXH
p637
tp638
Rp639
(dp640
g9
Nsg10
I00
sbsS'31aafdf7f705fece7156270a9e639031'
p641
g2
(g3
g4
VyHA3WY
p642
tp643
Rp644
(dp645
g9
Nsg10
I00
sbsS'2ea24ed1ae852e6359f0150b43311388'
p646
g2
(g3
g4
VDdYH0J
p647
tp648
Rp649
(dp650
g9
Nsg10
I00
sbsS'86347a19ce77d0249ee0939d128125c8'
p651
g2
(g3
g4
VxKpDf6
p652
tp653
Rp654
(dp655
g9
Nsg10
I00
sbsS'5ce4e48821432e424c8f839546d1e6ec'
p656
g2
(g3
g4
VbcPoD7
p657
tp658
Rp659
(dp660
g9
Nsg10
I00
sbsS'299145d539b47f8812a1ad50a8c4730b'
p661
g2
(g3
g4
VV3JRLX
p662
tp663
Rp664
(dp665
g9
Nsg10
I00
sbsS'2a912c36809d1d702f7c331b2971ceb0'
p666
g2
(g3
g4
VMPjXuM
p667
tp668
Rp669
(dp670
g9
Nsg10
I00
sbsS'dd84b1ad65ba637eb979c709c83bd47a'
p671
g2
(g3
g4
VK8UErc
p672
tp673
Rp674
(dp675
g9
Nsg10
I00
sbsS'98354e3ea8fedffbe03aa18f51531839'
p676
g2
(g3
g4
VNgtwMl
p677
tp678
Rp679
(dp680
g9
Nsg10
I00
sbsS'e852ad3f3be3d7679d48f5ac6eafcc4d'
p681
g2
(g3
g4
V8LslL7
p682
tp683
Rp684
(dp685
g9
Nsg10
I00
sbsS'955407807435725dc074370e91c49e80'
p686
g2
(g3
g4
VODc9vh
p687
tp688
Rp689
(dp690
g9
Nsg10
I00
sbsS'119b02fd9cb186543829ea38b34909e5'
p691
g2
(g3
g4
VmvHxN7
p692
tp693
Rp694
(dp695
g9
Nsg10
I00
sbsS'4d76af2dab4c75b1ff24bf7dfc72dbe4'
p696
g2
(g3
g4
VmSfWdp
p697
tp698
Rp699
(dp700
g9
Nsg10
I00
sbsS'd2e89e78d7c3f3d33e02cf7a0cd212aa'
p701
g2
(g3
g4
VXz9Pg5
p702
tp703
Rp704
(dp705
g9
Nsg10
I00
sbsS'4a5e1c127ae3e9de050cb882956493ed'
p706
g2
(g3
g4
V8tSek3
p707
tp708
Rp709
(dp710
g9
Nsg10
I00
sbsS'bfd0f7ca1682301d821eb8d4bf2c633a'
p711
g2
(g3
g4
VjBjmZp
p712
tp713
Rp714
(dp715
g9
Nsg10
I00
sbsS'eb8be1c977c8b8ace5d562723eb9c7d5'
p716
g2
(g3
g4
VmjfE6T
p717
tp718
Rp719
(dp720
g9
Nsg10
I00
sbsS'5a33c52bab689a057edd063c15834e74'
p721
g2
(g3
g4
VLDpYcO
p722
tp723
Rp724
(dp725
g9
Nsg10
I00
sbsS'6cd342b22c596b43aa34ce975917b579'
p726
g2
(g3
g4
V45VBXm
p727
tp728
Rp729
(dp730
g9
Nsg10
I00
sbsS'c9eae2a50fd8a37fd06974fdbb8411b3'
p731
g2
(g3
g4
VlNzWZH
p732
tp733
Rp734
(dp735
g9
Nsg10
I00
sbsS'f40911f472378789b16c91e96052e81e'
p736
g2
(g3
g4
VEOf4xo
p737
tp738
Rp739
(dp740
g9
Nsg10
I00
sbsS'a013abc276ba980331f7053f2822f1b0'
p741
g2
(g3
g4
VP4ayzW
p742
tp743
Rp744
(dp745
g9
Nsg10
I00
sbsS'9316f21b9d68230d0815ea104df5e54c'
p746
g2
(g3
g4
VzjFF9S
p747
tp748
Rp749
(dp750
g9
Nsg10
I00
sbsS'ae08c8401165ed7d51e588f9d49f940c'
p751
g2
(g3
g4
VQiedrd
p752
tp753
Rp754
(dp755
g9
Nsg10
I00
sbsS'959ab0301f81944db128477205dc0da8'
p756
g2
(g3
g4
VZEoRg5
p757
tp758
Rp759
(dp760
g9
Nsg10
I00
sbsS'a7c6d3e939e0f237eba89ede8c4ee0d8'
p761
g2
(g3
g4
V2naguo
p762
tp763
Rp764
(dp765
g9
Nsg10
I00
sbsS'91ffccec8abf2a59f16babcce220f0d1'
p766
g2
(g3
g4
VmCnmo6
p767
tp768
Rp769
(dp770
g9
Nsg10
I00
sbsS'b000d76fb4df5191331b1d1678634f29'
p771
g2
(g3
g4
V7iIDio
p772
tp773
Rp774
(dp775
g9
Nsg10
I00
sbsS'afadcc0371753413e5d5aaba4ad5310b'
p776
g2
(g3
g4
Vv6gdat
p777
tp778
Rp779
(dp780
g9
Nsg10
I00
sbsS'9a2293b65aa529034fc357d9dc3464aa'
p781
g2
(g3
g4
VP0rmSQ
p782
tp783
Rp784
(dp785
g9
Nsg10
I00
sbsS'fb6c8751fc9b79c47afc93aebf47aff4'
p786
g2
(g3
g4
VqLMImy
p787
tp788
Rp789
(dp790
g9
Nsg10
I00
sbsS'7e5fbb086b12beeaa3b5b64fc93d981b'
p791
g2
(g3
g4
VEnarSD
p792
tp793
Rp794
(dp795
g9
Nsg10
I00
sbsS'1f3435f7a5f0ca164549e3c533d97bc9'
p796
g2
(g3
g4
VcvLlA8
p797
tp798
Rp799
(dp800
g9
Nsg10
I00
sbsS'b12b7374e47efb54f69dbcb8e5af8146'
p801
g2
(g3
g4
VpReyOw
p802
tp803
Rp804
(dp805
g9
Nsg10
I00
sbsS'fc617ccb710cd555d877583d15733901'
p806
g2
(g3
g4
VjLrzeh
p807
tp808
Rp809
(dp810
g9
Nsg10
I00
sbsS'479b3cb97b8654b18943e0ef7933b71b'
p811
g2
(g3
g4
V6n3oSs
p812
tp813
Rp814
(dp815
g9
Nsg10
I00
sbsS'f71b4dde2ab3b4275d2e3dc9a29a4653'
p816
g2
(g3
g4
VZAbM6C
p817
tp818
Rp819
(dp820
g9
Nsg10
I00
sbsS'3782eb41255b5a2f4290bfa54af5cee6'
p821
g2
(g3
g4
VqNReG4
p822
tp823
Rp824
(dp825
g9
Nsg10
I00
sbsS'b73823e867947ea8352c5ca206e20917'
p826
g2
(g3
g4
VIPnLkW
p827
tp828
Rp829
(dp830
g9
Nsg10
I00
sbsS'c8a34ac2f783448424167c25e626c3ac'
p831
g2
(g3
g4
VQEXGNu
p832
tp833
Rp834
(dp835
g9
Nsg10
I00
sbsS'eeca677b9be1c866e23508337e53925e'
p836
g2
(g3
g4
VteKmvq
p837
tp838
Rp839
(dp840
g9
Nsg10
I00
sbsS'1860221ae7e3f15f1be3aa489350fc07'
p841
g2
(g3
g4
VbUmX6l
p842
tp843
Rp844
(dp845
g9
Nsg10
I00
sbsS'7b768e6a6b682a870dae4ac5603c3dc2'
p846
g2
(g3
g4
VoVYWZA
p847
tp848
Rp849
(dp850
g9
Nsg10
I00
sbsS'6260ff37f33ead0055d212c442a80c37'
p851
g2
(g3
g4
VmdmjZw
p852
tp853
Rp854
(dp855
g9
Nsg10
I00
sbsS'c31d313093875b14bc88244f6b322701'
p856
g2
(g3
g4
VqaaExa
p857
tp858
Rp859
(dp860
g9
Nsg10
I00
sbsS'80a0c7bd4a527d7bf3c344b244568eb8'
p861
g2
(g3
g4
VzzAKwF
p862
tp863
Rp864
(dp865
g9
Nsg10
I00
sbsS'1a93bb1268c0331f372d1e44ac483f56'
p866
g2
(g3
g4
Vyun1KR
p867
tp868
Rp869
(dp870
g9
Nsg10
I00
sbsS'769d536e5dcd4783876cd2dd626a22cf'
p871
g2
(g3
g4
V5ODfM8
p872
tp873
Rp874
(dp875
g9
Nsg10
I00
sbsS'f493e20702f74b0d29109aee43ff76e1'
p876
g2
(g3
g4
VwKvwVO
p877
tp878
Rp879
(dp880
g9
Nsg10
I00
sbsS'f46abe5cdc92c7a47f9dc6ba181ae951'
p881
g2
(g3
g4
VTKeIIJ
p882
tp883
Rp884
(dp885
g9
Nsg10
I00
sbsS'ebea5f98611f42b3ebc9ec25cb060c3b'
p886
g2
(g3
g4
VQvhIK5
p887
tp888
Rp889
(dp890
g9
Nsg10
I00
sbsS'bcd375be628937e7bffb5ce24e05455c'
p891
g2
(g3
g4
VRAYmrn
p892
tp893
Rp894
(dp895
g9
Nsg10
I00
sbsS'8b215a7cd85acf5290e9b2c6b957c2a0'
p896
g2
(g3
g4
V0tPo46
p897
tp898
Rp899
(dp900
g9
Nsg10
I00
sbsS'f294eba4eb12caaea6cc83c54636ad19'
p901
g2
(g3
g4
Vleztls
p902
tp903
Rp904
(dp905
g9
Nsg10
I00
sbsS'cf21191feb75f625570adb3d386ba7fa'
p906
g2
(g3
g4
VNcIMiC
p907
tp908
Rp909
(dp910
g9
Nsg10
I00
sbsS'943918c7ba0ec22d7ac7bc1f2ccdb82c'
p911
g2
(g3
g4
V5aZf3b
p912
tp913
Rp914
(dp915
g9
Nsg10
I00
sbsS'75250987feeb1d9313a213e200e8c7d7'
p916
g2
(g3
g4
V4JWpDq
p917
tp918
Rp919
(dp920
g9
Nsg10
I00
sbsS'b4edcae4da50ea5365245f86839315b9'
p921
g2
(g3
g4
V1bOKKL
p922
tp923
Rp924
(dp925
g9
Nsg10
I00
sbsS'de58cf4b45c0c72922c42db31f4a69e5'
p926
g2
(g3
g4
VEO5umY
p927
tp928
Rp929
(dp930
g9
Nsg10
I00
sbsS'4e7e856d7f497d19142bd271591b14b3'
p931
g2
(g3
g4
VAKQWpB
p932
tp933
Rp934
(dp935
g9
Nsg10
I00
sbsS'f695c3dac97a303d5bff8105c2051b42'
p936
g2
(g3
g4
VxDODG2
p937
tp938
Rp939
(dp940
g9
Nsg10
I00
sbsS'3192fdf5910cb18c7e502006519d7cdb'
p941
g2
(g3
g4
Va6N6a3
p942
tp943
Rp944
(dp945
g9
Nsg10
I00
sbsS'4129564a1c7b47b00ec0786993908120'
p946
g2
(g3
g4
VsJMmWm
p947
tp948
Rp949
(dp950
g9
Nsg10
I00
sbsS'139b6abc6b769a10f887fc4f7f30f053'
p951
g2
(g3
g4
V34f7TL
p952
tp953
Rp954
(dp955
g9
Nsg10
I00
sbsS'367ef8e10412ee18b39c7d2447f61b7f'
p956
g2
(g3
g4
ViloMDW
p957
tp958
Rp959
(dp960
g9
Nsg10
I00
sbsS'09b0f5ebafcf85d22e88a1a5395935a0'
p961
g2
(g3
g4
VWkTGHo
p962
tp963
Rp964
(dp965
g9
Nsg10
I00
sbsS'70bd036c5c11e441b5bb2676da45ca60'
p966
g2
(g3
g4
Vesdmyz
p967
tp968
Rp969
(dp970
g9
Nsg10
I00
sbsS'36ab82be3eaea557a80d0e2567e727ee'
p971
g2
(g3
g4
V87TaJm
p972
tp973
Rp974
(dp975
g9
Nsg10
I00
sbsS'1cc801604d6d5dc8f7651ef44c613f9c'
p976
g2
(g3
g4
V9wrpFI
p977
tp978
Rp979
(dp980
g9
Nsg10
I00
sbsS'a5777476a8063c00cc8bfb50f7959929'
p981
g2
(g3
g4
Vl98CMj
p982
tp983
Rp984
(dp985
g9
Nsg10
I00
sbsS'eb66a7fa866945879543f5150aba72fc'
p986
g2
(g3
g4
VYBRu0R
p987
tp988
Rp989
(dp990
g9
Nsg10
I00
sbsS'e633900df216bed714b28527ebecc595'
p991
g2
(g3
g4
VH8OEw0
p992
tp993
Rp994
(dp995
g9
Nsg10
I00
sbsS'22a5ccfe778affaef492e8ecb55eea8e'
p996
g2
(g3
g4
VhoxZEH
p997
tp998
Rp999
(dp1000
g9
Nsg10
I00
sbsS'fdf631eb0ab4787c4db7332bdf1ce7ca'
p1001
g2
(g3
g4
VcB1u9Q
p1002
tp1003
Rp1004
(dp1005
g9
Nsg10
I00
sbsS'44e75a6370a71a4616136e955871b4ac'
p1006
g2
(g3
g4
VsCtx00
p1007
tp1008
Rp1009
(dp1010
g9
Nsg10
I00
sbsS'b3eed07b49c6fb3393f0a9481bd4e52d'
p1011
g2
(g3
g4
VmoW94B
p1012
tp1013
Rp1014
(dp1015
g9
Nsg10
I00
sbsS'f202e1c7bbd7e4decf61493fad965bfd'
p1016
g2
(g3
g4
Vwt5slm
p1017
tp1018
Rp1019
(dp1020
g9
Nsg10
I00
sbsS'a8cc09ef8a49690c7bba174e722b85ac'
p1021
g2
(g3
g4
VRhbDJl
p1022
tp1023
Rp1024
(dp1025
g9
Nsg10
I00
sbsS'333a74e2b3dc14c9c51d8fb995c80904'
p1026
g2
(g3
g4
Vi5z4J2
p1027
tp1028
Rp1029
(dp1030
g9
Nsg10
I00
sbsS'6d06b3fe18b9a2b7fc9e9944d3f32331'
p1031
g2
(g3
g4
VSfc3LZ
p1032
tp1033
Rp1034
(dp1035
g9
Nsg10
I00
sbsS'df86e779dc56d0706ff78d92891fac01'
p1036
g2
(g3
g4
V913fpA
p1037
tp1038
Rp1039
(dp1040
g9
Nsg10
I00
sbsS'dd9d72fcc094cedcbc6cb910646a3a9e'
p1041
g2
(g3
g4
VJUC2Gg
p1042
tp1043
Rp1044
(dp1045
g9
Nsg10
I00
sbsS'c8411bbe6ed456c89c6ec6ca84e46cee'
p1046
g2
(g3
g4
VQZvuiM
p1047
tp1048
Rp1049
(dp1050
g9
Nsg10
I00
sbsS'209342353fc00e716d2463b329b3b396'
p1051
g2
(g3
g4
VoAdUqq
p1052
tp1053
Rp1054
(dp1055
g9
Nsg10
I00
sbsS'31b513228b87a0e958eaf5528ad1a831'
p1056
g2
(g3
g4
VGFEmcl
p1057
tp1058
Rp1059
(dp1060
g9
Nsg10
I00
sbsS'b86f92ae4a3d3ff59e7a337af5f22938'
p1061
g2
(g3
g4
VAn2qRA
p1062
tp1063
Rp1064
(dp1065
g9
Nsg10
I00
sbsS'95fe1558911723c4d8ddbe6ec49514f6'
p1066
g2
(g3
g4
ViAUJLL
p1067
tp1068
Rp1069
(dp1070
g9
Nsg10
I00
sbsS'6a6ac1e5f5e41876681d31aef01a0872'
p1071
g2
(g3
g4
Vt6Tiuu
p1072
tp1073
Rp1074
(dp1075
g9
Nsg10
I00
sbsS'ba89a8f6b77aac12fffd163b2dc8f64c'
p1076
g2
(g3
g4
VSx8gHw
p1077
tp1078
Rp1079
(dp1080
g9
Nsg10
I00
sbsS'6f08112659d765ab411c694956d99e1f'
p1081
g2
(g3
g4
VBifNLh
p1082
tp1083
Rp1084
(dp1085
g9
Nsg10
I00
sbsS'7da68cad822b67fcdf299eb721fb3fa2'
p1086
g2
(g3
g4
VA6UxDQ
p1087
tp1088
Rp1089
(dp1090
g9
Nsg10
I00
sbsS'b7a302b19db4149cc3b9b68be53f53ec'
p1091
g2
(g3
g4
VJsgdTR
p1092
tp1093
Rp1094
(dp1095
g9
Nsg10
I00
sbsS'49ed263062580f5618eb1d3a2eedadf6'
p1096
g2
(g3
g4
VJLG9Ez
p1097
tp1098
Rp1099
(dp1100
g9
Nsg10
I00
sbsS'29529f66349da287462c5e4e9dd858fc'
p1101
g2
(g3
g4
VQ5Yi2e
p1102
tp1103
Rp1104
(dp1105
g9
Nsg10
I00
sbsS'f210df3826e74727b055c83f9d3d13bd'
p1106
g2
(g3
g4
V2f5bQc
p1107
tp1108
Rp1109
(dp1110
g9
Nsg10
I00
sbsS'eb85ec762d767029249b4cdf7a739f50'
p1111
g2
(g3
g4
VKcJb9N
p1112
tp1113
Rp1114
(dp1115
g9
Nsg10
I00
sbsS'9705a0a9410150e0a686427d08a07b88'
p1116
g2
(g3
g4
VHPOjVT
p1117
tp1118
Rp1119
(dp1120
g9
Nsg10
I00
sbsS'43529d2edd67fde1ddea712fb2d96993'
p1121
g2
(g3
g4
V6RvXk3
p1122
tp1123
Rp1124
(dp1125
g9
Nsg10
I00
sbsS'd946ec17b8da953842f32ae535a7a1e4'
p1126
g2
(g3
g4
VTgip6m
p1127
tp1128
Rp1129
(dp1130
g9
Nsg10
I00
sbsS'54f383324d156d346ffce552fa5368a0'
p1131
g2
(g3
g4
V2djhgk
p1132
tp1133
Rp1134
(dp1135
g9
Nsg10
I00
sbsS'3bb5f3425ff6bcd84d89fc62784027dc'
p1136
g2
(g3
g4
VEfv3SV
p1137
tp1138
Rp1139
(dp1140
g9
Nsg10
I00
sbsS'bb0b77965119f0e3edec8571e3a2f601'
p1141
g2
(g3
g4
V4Ogpys
p1142
tp1143
Rp1144
(dp1145
g9
Nsg10
I00
sbsS'0c305fb3a137cbb3993e31899c596ab1'
p1146
g2
(g3
g4
VkzJUpB
p1147
tp1148
Rp1149
(dp1150
g9
Nsg10
I00
sbsS'c533a4a156657945567bba9dfdd95377'
p1151
g2
(g3
g4
VFIeVi4
p1152
tp1153
Rp1154
(dp1155
g9
Nsg10
I00
sbsS'a3fea72331188a4a2d9288599dc4eba8'
p1156
g2
(g3
g4
V9zeg5F
p1157
tp1158
Rp1159
(dp1160
g9
Nsg10
I00
sbsS'6e68c7ac6a7a3a5df4db8fbe58dc6c73'
p1161
g2
(g3
g4
VOIJkjX
p1162
tp1163
Rp1164
(dp1165
g9
Nsg10
I00
sbsS'4e9c00717acc4b54ea3b346c081d978b'
p1166
g2
(g3
g4
V4XWz4c
p1167
tp1168
Rp1169
(dp1170
g9
Nsg10
I00
sbsS'97efd072f28df5cc33c10f898f91cade'
p1171
g2
(g3
g4
VpICZ6J
p1172
tp1173
Rp1174
(dp1175
g9
Nsg10
I00
sbsS'c2c04960af41f4b2d933b5424a1046f7'
p1176
g2
(g3
g4
VRa0D80
p1177
tp1178
Rp1179
(dp1180
g9
Nsg10
I00
sbsS'fe53b89d88460c2372e88b9d4930f3f9'
p1181
g2
(g3
g4
VHp0Fhu
p1182
tp1183
Rp1184
(dp1185
g9
Nsg10
I00
sbsS'fecd58c28b1044cb1e0d2da8daeec0e9'
p1186
g2
(g3
g4
VhdqDUd
p1187
tp1188
Rp1189
(dp1190
g9
Nsg10
I00
sbsS'b4914242810d82425d8558403f604de3'
p1191
g2
(g3
g4
V7E4F0B
p1192
tp1193
Rp1194
(dp1195
g9
Nsg10
I00
sbsS'b6e1279bd63fb0842df5350d7a80cbbd'
p1196
g2
(g3
g4
Vli2SdZ
p1197
tp1198
Rp1199
(dp1200
g9
Nsg10
I00
sbsS'f86e7c90924c89e1ef8a737b790d8772'
p1201
g2
(g3
g4
VSo5ImR
p1202
tp1203
Rp1204
(dp1205
g9
Nsg10
I00
sbsS'5bf5d848152230a0bba58a64d75a1825'
p1206
g2
(g3
g4
VaAn6t5
p1207
tp1208
Rp1209
(dp1210
g9
Nsg10
I00
sbsS'8af1a119b6df3333e30ffd27f84ddb17'
p1211
g2
(g3
g4
VjXQJ8j
p1212
tp1213
Rp1214
(dp1215
g9
Nsg10
I00
sbsS'd41d8cd98f00b204e9800998ecf8427e'
p1216
g2
(g3
g4
VrFJzKF
p1217
tp1218
Rp1219
(dp1220
g9
Nsg10
I00
sbsS'437ab06489449856f1e7e2fc615cf61c'
p1221
g2
(g3
g4
VIfi9gZ
p1222
tp1223
Rp1224
(dp1225
g9
Nsg10
I00
sbsS'3ac9fdc3560b18f11cb9f2d8948891bf'
p1226
g2
(g3
g4
VvK6pUz
p1227
tp1228
Rp1229
(dp1230
g9
Nsg10
I00
sbsS'32508a5e8f931e4d52c190c86b0df4fb'
p1231
g2
(g3
g4
VwZ3WS3
p1232
tp1233
Rp1234
(dp1235
g9
Nsg10
I00
sbs.