(dp0
S'fc617ccb710cd555d877583d15733901'
p1
ccopy_reg
_reconstructor
p2
(csuds.sax.text
Text
p3
c__builtin__
unicode
p4
VjLrzeh
p5
tp6
Rp7
(dp8
S'lang'
p9
NsS'escaped'
p10
I00
sbsS'1e496d88444102fe39278f1fcf8ac9bb'
p11
g2
(g3
g4
V0s79UX
p12
tp13
Rp14
(dp15
g9
Nsg10
I00
sbsS'1a4ebf6c830fd2528089540bce01c338'
p16
g2
(g3
g4
V1HTlfO
p17
tp18
Rp19
(dp20
g9
Nsg10
I00
sbsS'477b47af995794138427f9313aa24104'
p21
g2
(g3
g4
V6mUMmL
p22
tp23
Rp24
(dp25
g9
Nsg10
I00
sbsS'e83c6f83369141714fe247f9837e3407'
p26
g2
(g3
g4
V62kHJw
p27
tp28
Rp29
(dp30
g9
Nsg10
I00
sbsS'e9d00ba1a41cb827e70515ca81dc3b6d'
p31
g2
(g3
g4
VD19YmM
p32
tp33
Rp34
(dp35
g9
Nsg10
I00
sbsS'9fcc678b5d4a81371689b96edfffc1c9'
p36
g2
(g3
g4
V6NTKEP
p37
tp38
Rp39
(dp40
g9
Nsg10
I00
sbsS'db00f4304e254c0d4a8bda7116510ae8'
p41
g2
(g3
g4
VIHyFYa
p42
tp43
Rp44
(dp45
g9
Nsg10
I00
sbsS'00e2143bcb14fa5e5e0479904b778db9'
p46
g2
(g3
g4
VaXM3ST
p47
tp48
Rp49
(dp50
g9
Nsg10
I00
sbsS'2f72486673de4bfb73a7334721678be6'
p51
g2
(g3
g4
VswbQ6H
p52
tp53
Rp54
(dp55
g9
Nsg10
I00
sbsS'c552138dd116333107f284d11e5d18fd'
p56
g2
(g3
g4
V3j3pmf
p57
tp58
Rp59
(dp60
g9
Nsg10
I00
sbsS'290859c341d0ed3b29dd0d81f19cceef'
p61
g2
(g3
g4
VYAJepx
p62
tp63
Rp64
(dp65
g9
Nsg10
I00
sbsS'a4c629aa92dd8d53d94c7452eeb3f123'
p66
g2
(g3
g4
VzFS03K
p67
tp68
Rp69
(dp70
g9
Nsg10
I00
sbsS'098b317fe4ccf65d2c672b66b9e4916f'
p71
g2
(g3
g4
VtcCvg0
p72
tp73
Rp74
(dp75
g9
Nsg10
I00
sbsS'70d4e49eb7d839d4554694c4fc80ba1c'
p76
g2
(g3
g4
VPT10rf
p77
tp78
Rp79
(dp80
g9
Nsg10
I00
sbsS'8734fbdd722f5ff8bfe2014e6d1a955a'
p81
g2
(g3
g4
VnmcmPo
p82
tp83
Rp84
(dp85
g9
Nsg10
I00
sbsS'59ccc9587dd36be7fa6e89142e1bd585'
p86
g2
(g3
g4
V666X1e
p87
tp88
Rp89
(dp90
g9
Nsg10
I00
sbsS'c7372690825b18ab52237a1a97f4b06f'
p91
g2
(g3
g4
VX2l4EP
p92
tp93
Rp94
(dp95
g9
Nsg10
I00
sbsS'86c88d228bf447bb220baec820857382'
p96
g2
(g3
g4
VrnVyjX
p97
tp98
Rp99
(dp100
g9
Nsg10
I00
sbsS'808a4de3c8e36e41500829cb7b86fd8a'
p101
g2
(g3
g4
VghkCHz
p102
tp103
Rp104
(dp105
g9
Nsg10
I00
sbsS'fbc62d204161e3c27b475cd977d46688'
p106
g2
(g3
g4
VVl9zVp
p107
tp108
Rp109
(dp110
g9
Nsg10
I00
sbsS'0937cfc1a3dbc7faf6b0e0f99c22aca0'
p111
g2
(g3
g4
Vv8Lo9N
p112
tp113
Rp114
(dp115
g9
Nsg10
I00
sbsS'3c9adf90dbd0067c9069e2e238163ea0'
p116
g2
(g3
g4
V0a7kU5
p117
tp118
Rp119
(dp120
g9
Nsg10
I00
sbsS'6d06b3fe18b9a2b7fc9e9944d3f32331'
p121
g2
(g3
g4
VSfc3LZ
p122
tp123
Rp124
(dp125
g9
Nsg10
I00
sbsS'17334eb0a50bc158d802c83178404b5b'
p126
g2
(g3
g4
VwRWDVx
p127
tp128
Rp129
(dp130
g9
Nsg10
I00
sbsS'f5f59f055a9912a1e9ce99d333d6110f'
p131
g2
(g3
g4
VOJbvYL
p132
tp133
Rp134
(dp135
g9
Nsg10
I00
sbsS'62773453eec664ab6d73cb7fe0cedbae'
p136
g2
(g3
g4
VE0U0RX
p137
tp138
Rp139
(dp140
g9
Nsg10
I00
sbsS'a6f5c2f338a8b76db0fc3d91cf269d46'
p141
g2
(g3
g4
VNwmWJ3
p142
tp143
Rp144
(dp145
g9
Nsg10
I00
sbsS'9e1d398a108eed08e933bdb6a5700965'
p146
g2
(g3
g4
V7jfGTA
p147
tp148
Rp149
(dp150
g9
Nsg10
I00
sbsS'52198ac30e61c21b622a6255d8e3b556'
p151
g2
(g3
g4
Vc5HMDH
p152
tp153
Rp154
(dp155
g9
Nsg10
I00
sbsS'c8411bbe6ed456c89c6ec6ca84e46cee'
p156
g2
(g3
g4
VQZvuiM
p157
tp158
Rp159
(dp160
g9
Nsg10
I00
sbsS'57ca6231995c1d536a3d7883aaff1b41'
p161
g2
(g3
g4
VBFKNEZ
p162
tp163
Rp164
(dp165
g9
Nsg10
I00
sbsS'efdff8b6822ab048ec8f153a617d4df6'
p166
g2
(g3
g4
V2h4Acd
p167
tp168
Rp169
(dp170
g9
Nsg10
I00
sbsS'bbb2558539f55f715ad58d62ef357242'
p171
g2
(g3
g4
V1GIVX5
p172
tp173
Rp174
(dp175
g9
Nsg10
I00
sbsS'bb07e2c632886217f9c02c358b823c23'
p176
g2
(g3
g4
V9O0Kzw
p177
tp178
Rp179
(dp180
g9
Nsg10
I00
sbsS'dd6e5a395e95253da2aa58a1de98e496'
p181
g2
(g3
g4
VXsmZvD
p182
tp183
Rp184
(dp185
g9
Nsg10
I00
sbsS'239f802081dcfe944637441465dbd886'
p186
g2
(g3
g4
VUx5ZVD
p187
tp188
Rp189
(dp190
g9
Nsg10
I00
sbsS'fd246e1a3a16f8a50d7e273e0827d375'
p191
g2
(g3
g4
VeWsDPZ
p192
tp193
Rp194
(dp195
g9
Nsg10
I00
sbsS'99cd14ce4010720d8e4c6c028f4cc652'
p196
g2
(g3
g4
VCMLrbO
p197
tp198
Rp199
(dp200
g9
Nsg10
I00
sbsS'e1be5422e43aacfcddc72e1493ce231b'
p201
g2
(g3
g4
VZNnr5K
p202
tp203
Rp204
(dp205
g9
Nsg10
I00
sbsS'e5515d7484afaebd9be77f605de98bca'
p206
g2
(g3
g4
Vd39TO0
p207
tp208
Rp209
(dp210
g9
Nsg10
I00
sbsS'8b8441465c558c1a8e06f1eb68a7ba32'
p211
g2
(g3
g4
V5NoiNV
p212
tp213
Rp214
(dp215
g9
Nsg10
I00
sbsS'617ad0790a2b008c9e8e648591efe1e1'
p216
g2
(g3
g4
VaVOUjp
p217
tp218
Rp219
(dp220
g9
Nsg10
I00
sbsS'c75d767c339c7500e858411a5c6b9751'
p221
g2
(g3
g4
VWiHCdL
p222
tp223
Rp224
(dp225
g9
Nsg10
I00
sbsS'860641c83670979d25fefe6412cf3825'
p226
g2
(g3
g4
VVmzKX7
p227
tp228
Rp229
(dp230
g9
Nsg10
I00
sbsS'c75005a75934c6f40b78b8e349adad1a'
p231
g2
(g3
g4
ViU0V1h
p232
tp233
Rp234
(dp235
g9
Nsg10
I00
sbsS'8c0b2dabd366ad7dff964f09ff82aec7'
p236
g2
(g3
g4
Vic0WuV
p237
tp238
Rp239
(dp240
g9
Nsg10
I00
sbsS'538725eaab346486698ffc7b71dbe1ff'
p241
g2
(g3
g4
V37yQLS
p242
tp243
Rp244
(dp245
g9
Nsg10
I00
sbsS'7c34f6a5d5c5363fec465c30c9f22b7f'
p246
g2
(g3
g4
VQRBCNj
p247
tp248
Rp249
(dp250
g9
Nsg10
I00
sbsS'66f9ca747f0490ede49c032f647860b1'
p251
g2
(g3
g4
VsZop3a
p252
tp253
Rp254
(dp255
g9
Nsg10
I00
sbsS'40ffe11029d8bb0d39e10b90b6273fd1'
p256
g2
(g3
g4
VesoECv
p257
tp258
Rp259
(dp260
g9
Nsg10
I00
sbsS'd317cef54bfb88f2b8d079b4fdaffce3'
p261
g2
(g3
g4
VaOpMR1
p262
tp263
Rp264
(dp265
g9
Nsg10
I00
sbsS'c0787cf00be5cf7403323c12ddd94178'
p266
g2
(g3
g4
VF3k3qo
p267
tp268
Rp269
(dp270
g9
Nsg10
I00
sbsS'382afccb33a9f7b0105dee1a63cee11a'
p271
g2
(g3
g4
VJLIhIz
p272
tp273
Rp274
(dp275
g9
Nsg10
I00
sbsS'49ed263062580f5618eb1d3a2eedadf6'
p276
g2
(g3
g4
VJLG9Ez
p277
tp278
Rp279
(dp280
g9
Nsg10
I00
sbsS'eb66a7fa866945879543f5150aba72fc'
p281
g2
(g3
g4
VYBRu0R
p282
tp283
Rp284
(dp285
g9
Nsg10
I00
sbsS'ec90240d90c211768aca215dc9ea64fe'
p286
g2
(g3
g4
V7vEZY5
p287
tp288
Rp289
(dp290
g9
Nsg10
I00
sbsS'f210df3826e74727b055c83f9d3d13bd'
p291
g2
(g3
g4
V2f5bQc
p292
tp293
Rp294
(dp295
g9
Nsg10
I00
sbsS'e70fa2ac9e3f6a70e042b5662d04b320'
p296
g2
(g3
g4
VF7iPTE
p297
tp298
Rp299
(dp300
g9
Nsg10
I00
sbsS'943918c7ba0ec22d7ac7bc1f2ccdb82c'
p301
g2
(g3
g4
V5aZf3b
p302
tp303
Rp304
(dp305
g9
Nsg10
I00
sbsS'50c799effb7410fb5e173627cbd009ff'
p306
g2
(g3
g4
VI6O4RU
p307
tp308
Rp309
(dp310
g9
Nsg10
I00
sbsS'2ea24ed1ae852e6359f0150b43311388'
p311
g2
(g3
g4
VDdYH0J
p312
tp313
Rp314
(dp315
g9
Nsg10
I00
sbsS'bd9128b366256cdb46ac37db7787564d'
p316
g2
(g3
g4
V1RMfya
p317
tp318
Rp319
(dp320
g9
Nsg10
I00
sbsS'955407807435725dc074370e91c49e80'
p321
g2
(g3
g4
VODc9vh
p322
tp323
Rp324
(dp325
g9
Nsg10
I00
sbsS'5a33c52bab689a057edd063c15834e74'
p326
g2
(g3
g4
VLDpYcO
p327
tp328
Rp329
(dp330
g9
Nsg10
I00
sbsS'6cd342b22c596b43aa34ce975917b579'
p331
g2
(g3
g4
V45VBXm
p332
tp333
Rp334
(dp335
g9
Nsg10
I00
sbsS'a013abc276ba980331f7053f2822f1b0'
p336
g2
(g3
g4
VP4ayzW
p337
tp338
Rp339
(dp340
g9
Nsg10
I00
sbsS'9316f21b9d68230d0815ea104df5e54c'
p341
g2
(g3
g4
VzjFF9S
p342
tp343
Rp344
(dp345
g9
Nsg10
I00
sbsS'ae08c8401165ed7d51e588f9d49f940c'
p346
g2
(g3
g4
VQiedrd
p347
tp348
Rp349
(dp350
g9
Nsg10
I00
sbsS'afadcc0371753413e5d5aaba4ad5310b'
p351
g2
(g3
g4
Vv6gdat
p352
tp353
Rp354
(dp355
g9
Nsg10
I00
sbsS'1f3435f7a5f0ca164549e3c533d97bc9'
p356
g2
(g3
g4
VcvLlA8
p357
tp358
Rp359
(dp360
g9
Nsg10
I00
sbsS'c2c04960af41f4b2d933b5424a1046f7'
p361
g2
(g3
g4
VRa0D80
p362
tp363
Rp364
(dp365
g9
Nsg10
I00
sbsS'30256344195789053409d38ce8d9bc22'
p366
g2
(g3
g4
V3CA4al
p367
tp368
Rp369
(dp370
g9
Nsg10
I00
sbsS'479b3cb97b8654b18943e0ef7933b71b'
p371
g2
(g3
g4
V6n3oSs
p372
tp373
Rp374
(dp375
g9
Nsg10
I00
sbsS'c8a34ac2f783448424167c25e626c3ac'
p376
g2
(g3
g4
VQEXGNu
p377
tp378
Rp379
(dp380
g9
Nsg10
I00
sbsS'eeca677b9be1c866e23508337e53925e'
p381
g2
(g3
g4
VteKmvq
p382
tp383
Rp384
(dp385
g9
Nsg10
I00
sbsS'c31d313093875b14bc88244f6b322701'
p386
g2
(g3
g4
VqaaExa
p387
tp388
Rp389
(dp390
g9
Nsg10
I00
sbsS'80a0c7bd4a527d7bf3c344b244568eb8'
p391
g2
(g3
g4
VzzAKwF
p392
tp393
Rp394
(dp395
g9
Nsg10
I00
sbsS'1cc801604d6d5dc8f7651ef44c613f9c'
p396
g2
(g3
g4
V9wrpFI
p397
tp398
Rp399
(dp400
g9
Nsg10
I00
sbsS'f46abe5cdc92c7a47f9dc6ba181ae951'
p401
g2
(g3
g4
VTKeIIJ
p402
tp403
Rp404
(dp405
g9
Nsg10
I00
sbsS'88926431b04e13be7fd22160b5aa9b14'
p406
g2
(g3
g4
VquhHw1
p407
tp408
Rp409
(dp410
g9
Nsg10
I00
sbsS'b4edcae4da50ea5365245f86839315b9'
p411
g2
(g3
g4
V1bOKKL
p412
tp413
Rp414
(dp415
g9
Nsg10
I00
sbsS'de58cf4b45c0c72922c42db31f4a69e5'
p416
g2
(g3
g4
VEO5umY
p417
tp418
Rp419
(dp420
g9
Nsg10
I00
sbsS'b4914242810d82425d8558403f604de3'
p421
g2
(g3
g4
V7E4F0B
p422
tp423
Rp424
(dp425
g9
Nsg10
I00
sbsS'09b0f5ebafcf85d22e88a1a5395935a0'
p426
g2
(g3
g4
VWkTGHo
p427
tp428
Rp429
(dp430
g9
Nsg10
I00
sbsS'36ab82be3eaea557a80d0e2567e727ee'
p431
g2
(g3
g4
V87TaJm
p432
tp433
Rp434
(dp435
g9
Nsg10
I00
sbsS'e633900df216bed714b28527ebecc595'
p436
g2
(g3
g4
VH8OEw0
p437
tp438
Rp439
(dp440
g9
Nsg10
I00
sbsS'44e75a6370a71a4616136e955871b4ac'
p441
g2
(g3
g4
VsCtx00
p442
tp443
Rp444
(dp445
g9
Nsg10
I00
sbsS'b3eed07b49c6fb3393f0a9481bd4e52d'
p446
g2
(g3
g4
VmoW94B
p447
tp448
Rp449
(dp450
g9
Nsg10
I00
sbsS'119b02fd9cb186543829ea38b34909e5'
p451
g2
(g3
g4
VmvHxN7
p452
tp453
Rp454
(dp455
g9
Nsg10
I00
sbsS'7077a788b83ca98639d05823bccca41f'
p456
g2
(g3
g4
VaJifis
p457
tp458
Rp459
(dp460
g9
Nsg10
I00
sbsS'b86f92ae4a3d3ff59e7a337af5f22938'
p461
g2
(g3
g4
VAn2qRA
p462
tp463
Rp464
(dp465
g9
Nsg10
I00
sbsS'6a6ac1e5f5e41876681d31aef01a0872'
p466
g2
(g3
g4
Vt6Tiuu
p467
tp468
Rp469
(dp470
g9
Nsg10
I00
sbsS'6f08112659d765ab411c694956d99e1f'
p471
g2
(g3
g4
VBifNLh
p472
tp473
Rp474
(dp475
g9
Nsg10
I00
sbsS'0e0463d7c3693281bc10974bfc701bc8'
p476
g2
(g3
g4
VTLwsaK
p477
tp478
Rp479
(dp480
g9
Nsg10
I00
sbsS'22aac93d8d78277e707a02ef95386b29'
p481
g2
(g3
g4
VuSSU6K
p482
tp483
Rp484
(dp485
g9
Nsg10
I00
sbsS'29529f66349da287462c5e4e9dd858fc'
p486
g2
(g3
g4
VQ5Yi2e
p487
tp488
Rp489
(dp490
g9
Nsg10
I00
sbsS'8c7d5da431a1df5dc9827718ceed2bd1'
p491
g2
(g3
g4
VSnyqKH
p492
tp493
Rp494
(dp495
g9
Nsg10
I00
sbsS'43529d2edd67fde1ddea712fb2d96993'
p496
g2
(g3
g4
V6RvXk3
p497
tp498
Rp499
(dp500
g9
Nsg10
I00
sbsS'bb0b77965119f0e3edec8571e3a2f601'
p501
g2
(g3
g4
V4Ogpys
p502
tp503
Rp504
(dp505
g9
Nsg10
I00
sbsS'7e5fbb086b12beeaa3b5b64fc93d981b'
p506
g2
(g3
g4
VEnarSD
p507
tp508
Rp509
(dp510
g9
Nsg10
I00
sbsS'a3fea72331188a4a2d9288599dc4eba8'
p511
g2
(g3
g4
V9zeg5F
p512
tp513
Rp514
(dp515
g9
Nsg10
I00
sbsS'b12b7374e47efb54f69dbcb8e5af8146'
p516
g2
(g3
g4
VpReyOw
p517
tp518
Rp519
(dp520
g9
Nsg10
I00
sbsS'f695c3dac97a303d5bff8105c2051b42'
p521
g2
(g3
g4
VxDODG2
p522
tp523
Rp524
(dp525
g9
Nsg10
I00
sbsS'7a5512bfd66144eaaef056c66861b533'
p526
g2
(g3
g4
VNxbAXH
p527
tp528
Rp529
(dp530
g9
Nsg10
I00
sbsS'd41d8cd98f00b204e9800998ecf8427e'
p531
g2
(g3
g4
VrFJzKF
p532
tp533
Rp534
(dp535
g9
Nsg10
I00
sbsS'32508a5e8f931e4d52c190c86b0df4fb'
p536
g2
(g3
g4
VwZ3WS3
p537
tp538
Rp539
(dp540
g9
Nsg10
I00
sbs.